Archive member included to satisfy reference by file (symbol)

C:/ti/simplelink_msp432e4_sdk_4_20_00_12/source\ti/devices/msp432e4/driverlib/lib/gcc/m4f/msp432e4_driverlib.a(emac.o)
                              ./lwip/ports/msp432e4/utils/lwiplib.o (EMACPHYConfigSet)
C:/ti/simplelink_msp432e4_sdk_4_20_00_12/source\ti/devices/msp432e4/driverlib/lib/gcc/m4f/msp432e4_driverlib.a(flash.o)
                              ./lwip/ports/msp432e4/utils/swupdate.o (FlashUserGet)
C:/ti/simplelink_msp432e4_sdk_4_20_00_12/source\ti/devices/msp432e4/driverlib/lib/gcc/m4f/msp432e4_driverlib.a(gpio.o)
                              ./pinout.o (GPIOPadConfigSet)
C:/ti/simplelink_msp432e4_sdk_4_20_00_12/source\ti/devices/msp432e4/driverlib/lib/gcc/m4f/msp432e4_driverlib.a(interrupt.o)
                              ./lwip/ports/msp432e4/netif/msp432e4if.o (IntMasterEnable)
C:/ti/simplelink_msp432e4_sdk_4_20_00_12/source\ti/devices/msp432e4/driverlib/lib/gcc/m4f/msp432e4_driverlib.a(sw_crc.o)
                              C:/ti/simplelink_msp432e4_sdk_4_20_00_12/source\ti/devices/msp432e4/driverlib/lib/gcc/m4f/msp432e4_driverlib.a(emac.o) (Crc32)
C:/ti/simplelink_msp432e4_sdk_4_20_00_12/source\ti/devices/msp432e4/driverlib/lib/gcc/m4f/msp432e4_driverlib.a(sysctl.o)
                              C:/ti/simplelink_msp432e4_sdk_4_20_00_12/source\ti/devices/msp432e4/driverlib/lib/gcc/m4f/msp432e4_driverlib.a(emac.o) (SysCtlPeripheralReady)
C:/ti/simplelink_msp432e4_sdk_4_20_00_12/source\ti/devices/msp432e4/driverlib/lib/gcc/m4f/msp432e4_driverlib.a(systick.o)
                              ./lwip/ports/msp432e4/utils/swupdate.o (SysTickDisable)
C:/ti/simplelink_msp432e4_sdk_4_20_00_12/source\ti/devices/msp432e4/driverlib/lib/gcc/m4f/msp432e4_driverlib.a(cpu.o)
                              C:/ti/simplelink_msp432e4_sdk_4_20_00_12/source\ti/devices/msp432e4/driverlib/lib/gcc/m4f/msp432e4_driverlib.a(interrupt.o) (CPUcpsid)
c:/ti/gcc_arm_none_eabi_9_2_1/bin/../lib/gcc/arm-none-eabi/9.2.1/thumb/v7e-m+fp/hard\libgcc.a(_aeabi_ldivmod.o)
                              ./ustdlib.o (__aeabi_ldivmod)
c:/ti/gcc_arm_none_eabi_9_2_1/bin/../lib/gcc/arm-none-eabi/9.2.1/thumb/v7e-m+fp/hard\libgcc.a(_udivmoddi4.o)
                              c:/ti/gcc_arm_none_eabi_9_2_1/bin/../lib/gcc/arm-none-eabi/9.2.1/thumb/v7e-m+fp/hard\libgcc.a(_aeabi_ldivmod.o) (__udivmoddi4)
c:/ti/gcc_arm_none_eabi_9_2_1/bin/../lib/gcc/arm-none-eabi/9.2.1/thumb/v7e-m+fp/hard\libgcc.a(_dvmd_tls.o)
                              c:/ti/gcc_arm_none_eabi_9_2_1/bin/../lib/gcc/arm-none-eabi/9.2.1/thumb/v7e-m+fp/hard\libgcc.a(_aeabi_ldivmod.o) (__aeabi_ldiv0)
c:/ti/gcc_arm_none_eabi_9_2_1/bin/../lib/gcc/arm-none-eabi/9.2.1/../../../../arm-none-eabi/lib/thumb/v7e-m+fp/hard\libc_nano.a(lib_a-exit.o)
                              c:/ti/gcc_arm_none_eabi_9_2_1/bin/../lib/gcc/arm-none-eabi/9.2.1/../../../../arm-none-eabi/lib/thumb/v7e-m+fp/hard/crt0.o (exit)
c:/ti/gcc_arm_none_eabi_9_2_1/bin/../lib/gcc/arm-none-eabi/9.2.1/../../../../arm-none-eabi/lib/thumb/v7e-m+fp/hard\libc_nano.a(lib_a-impure.o)
                              c:/ti/gcc_arm_none_eabi_9_2_1/bin/../lib/gcc/arm-none-eabi/9.2.1/../../../../arm-none-eabi/lib/thumb/v7e-m+fp/hard\libc_nano.a(lib_a-exit.o) (_global_impure_ptr)
c:/ti/gcc_arm_none_eabi_9_2_1/bin/../lib/gcc/arm-none-eabi/9.2.1/../../../../arm-none-eabi/lib/thumb/v7e-m+fp/hard\libc_nano.a(lib_a-init.o)
                              c:/ti/gcc_arm_none_eabi_9_2_1/bin/../lib/gcc/arm-none-eabi/9.2.1/../../../../arm-none-eabi/lib/thumb/v7e-m+fp/hard/crt0.o (__libc_init_array)
c:/ti/gcc_arm_none_eabi_9_2_1/bin/../lib/gcc/arm-none-eabi/9.2.1/../../../../arm-none-eabi/lib/thumb/v7e-m+fp/hard\libc_nano.a(lib_a-malloc.o)
                              ./Kernal/kernal/queue.o (malloc)
c:/ti/gcc_arm_none_eabi_9_2_1/bin/../lib/gcc/arm-none-eabi/9.2.1/../../../../arm-none-eabi/lib/thumb/v7e-m+fp/hard\libc_nano.a(lib_a-memcmp.o)
                              ./lwip/src/core/ipv4/autoip.o (memcmp)
c:/ti/gcc_arm_none_eabi_9_2_1/bin/../lib/gcc/arm-none-eabi/9.2.1/../../../../arm-none-eabi/lib/thumb/v7e-m+fp/hard\libc_nano.a(lib_a-memcpy-stub.o)
                              ./io_fs.o (memcpy)
c:/ti/gcc_arm_none_eabi_9_2_1/bin/../lib/gcc/arm-none-eabi/9.2.1/../../../../arm-none-eabi/lib/thumb/v7e-m+fp/hard\libc_nano.a(lib_a-memset.o)
                              c:/ti/gcc_arm_none_eabi_9_2_1/bin/../lib/gcc/arm-none-eabi/9.2.1/../../../../arm-none-eabi/lib/thumb/v7e-m+fp/hard/crt0.o (memset)
c:/ti/gcc_arm_none_eabi_9_2_1/bin/../lib/gcc/arm-none-eabi/9.2.1/../../../../arm-none-eabi/lib/thumb/v7e-m+fp/hard\libc_nano.a(lib_a-nano-freer.o)
                              c:/ti/gcc_arm_none_eabi_9_2_1/bin/../lib/gcc/arm-none-eabi/9.2.1/../../../../arm-none-eabi/lib/thumb/v7e-m+fp/hard\libc_nano.a(lib_a-malloc.o) (_free_r)
c:/ti/gcc_arm_none_eabi_9_2_1/bin/../lib/gcc/arm-none-eabi/9.2.1/../../../../arm-none-eabi/lib/thumb/v7e-m+fp/hard\libc_nano.a(lib_a-nano-mallocr.o)
                              c:/ti/gcc_arm_none_eabi_9_2_1/bin/../lib/gcc/arm-none-eabi/9.2.1/../../../../arm-none-eabi/lib/thumb/v7e-m+fp/hard\libc_nano.a(lib_a-malloc.o) (_malloc_r)
c:/ti/gcc_arm_none_eabi_9_2_1/bin/../lib/gcc/arm-none-eabi/9.2.1/../../../../arm-none-eabi/lib/thumb/v7e-m+fp/hard\libc_nano.a(lib_a-rand.o)
                              ./lwip/src/core/dns.o (rand)
c:/ti/gcc_arm_none_eabi_9_2_1/bin/../lib/gcc/arm-none-eabi/9.2.1/../../../../arm-none-eabi/lib/thumb/v7e-m+fp/hard\libc_nano.a(lib_a-sbrkr.o)
                              c:/ti/gcc_arm_none_eabi_9_2_1/bin/../lib/gcc/arm-none-eabi/9.2.1/../../../../arm-none-eabi/lib/thumb/v7e-m+fp/hard\libc_nano.a(lib_a-nano-mallocr.o) (_sbrk_r)
c:/ti/gcc_arm_none_eabi_9_2_1/bin/../lib/gcc/arm-none-eabi/9.2.1/../../../../arm-none-eabi/lib/thumb/v7e-m+fp/hard\libc_nano.a(lib_a-strchr.o)
                              ./lwip/src/apps/httpd/httpd.o (strchr)
c:/ti/gcc_arm_none_eabi_9_2_1/bin/../lib/gcc/arm-none-eabi/9.2.1/../../../../arm-none-eabi/lib/thumb/v7e-m+fp/hard\libc_nano.a(lib_a-strcmp.o)
                              ./cgifuncs.o (strcmp)
c:/ti/gcc_arm_none_eabi_9_2_1/bin/../lib/gcc/arm-none-eabi/9.2.1/../../../../arm-none-eabi/lib/thumb/v7e-m+fp/hard\libc_nano.a(lib_a-strlen.o)
                              ./io_fs.o (strlen)
c:/ti/gcc_arm_none_eabi_9_2_1/bin/../lib/gcc/arm-none-eabi/9.2.1/../../../../arm-none-eabi/lib/thumb/v7e-m+fp/hard\libc_nano.a(lib_a-strncmp.o)
                              ./lwip/src/apps/httpd/httpd.o (strncmp)
c:/ti/gcc_arm_none_eabi_9_2_1/bin/../lib/gcc/arm-none-eabi/9.2.1/../../../../arm-none-eabi/lib/thumb/v7e-m+fp/hard\libc_nano.a(lib_a-strstr.o)
                              ./lwip/src/apps/httpd/httpd.o (strstr)
c:/ti/gcc_arm_none_eabi_9_2_1/bin/../lib/gcc/arm-none-eabi/9.2.1/../../../../arm-none-eabi/lib/thumb/v7e-m+fp/hard\libc_nano.a(lib_a-mlock.o)
                              c:/ti/gcc_arm_none_eabi_9_2_1/bin/../lib/gcc/arm-none-eabi/9.2.1/../../../../arm-none-eabi/lib/thumb/v7e-m+fp/hard\libc_nano.a(lib_a-nano-freer.o) (__malloc_lock)
c:/ti/gcc_arm_none_eabi_9_2_1/bin/../lib/gcc/arm-none-eabi/9.2.1/../../../../arm-none-eabi/lib/thumb/v7e-m+fp/hard\libc_nano.a(lib_a-reent.o)
                              c:/ti/gcc_arm_none_eabi_9_2_1/bin/../lib/gcc/arm-none-eabi/9.2.1/../../../../arm-none-eabi/lib/thumb/v7e-m+fp/hard\libc_nano.a(lib_a-sbrkr.o) (errno)
c:/ti/gcc_arm_none_eabi_9_2_1/bin/../lib/gcc/arm-none-eabi/9.2.1/../../../../arm-none-eabi/lib/thumb/v7e-m+fp/hard\libc_nano.a(lib_a-lock.o)
                              c:/ti/gcc_arm_none_eabi_9_2_1/bin/../lib/gcc/arm-none-eabi/9.2.1/../../../../arm-none-eabi/lib/thumb/v7e-m+fp/hard\libc_nano.a(lib_a-mlock.o) (__retarget_lock_acquire_recursive)
c:/ti/gcc_arm_none_eabi_9_2_1/bin/../lib/gcc/arm-none-eabi/9.2.1/../../../../arm-none-eabi/lib/thumb/v7e-m+fp/hard\libnosys.a(sbrk.o)
                              c:/ti/gcc_arm_none_eabi_9_2_1/bin/../lib/gcc/arm-none-eabi/9.2.1/../../../../arm-none-eabi/lib/thumb/v7e-m+fp/hard\libc_nano.a(lib_a-sbrkr.o) (_sbrk)
c:/ti/gcc_arm_none_eabi_9_2_1/bin/../lib/gcc/arm-none-eabi/9.2.1/../../../../arm-none-eabi/lib/thumb/v7e-m+fp/hard\libnosys.a(_exit.o)
                              c:/ti/gcc_arm_none_eabi_9_2_1/bin/../lib/gcc/arm-none-eabi/9.2.1/../../../../arm-none-eabi/lib/thumb/v7e-m+fp/hard\libc_nano.a(lib_a-exit.o) (_exit)

Allocating common symbols
Common symbol       size              file

netif               0x38              ./enet_io.o
g_iNumCGIs          0x4               ./lwip/src/apps/httpd/httpd.o
netif_list          0x4               ./lwip/src/core/netif.o
__lock___atexit_recursive_mutex
                    0x1               c:/ti/gcc_arm_none_eabi_9_2_1/bin/../lib/gcc/arm-none-eabi/9.2.1/../../../../arm-none-eabi/lib/thumb/v7e-m+fp/hard\libc_nano.a(lib_a-lock.o)
g_ui32IPAddress     0x4               ./enet_io.o
__lock___arc4random_mutex
                    0x1               c:/ti/gcc_arm_none_eabi_9_2_1/bin/../lib/gcc/arm-none-eabi/9.2.1/../../../../arm-none-eabi/lib/thumb/v7e-m+fp/hard\libc_nano.a(lib_a-lock.o)
ip_data             0x18              ./lwip/src/core/ip.o
tcp_active_pcbs_changed
                    0x1               ./lwip/src/core/tcp.o
tcp_active_pcbs     0x4               ./lwip/src/core/tcp.o
udp_pcbs            0x4               ./lwip/src/core/udp.o
errno               0x4               c:/ti/gcc_arm_none_eabi_9_2_1/bin/../lib/gcc/arm-none-eabi/9.2.1/../../../../arm-none-eabi/lib/thumb/v7e-m+fp/hard\libc_nano.a(lib_a-reent.o)
svcEXEReturn        0x4               ./Kernal/kernal/SquadRTOS.o
g_sDriverStats      0x2c              ./lwip/ports/msp432e4/netif/msp432e4if.o
tcp_ticks           0x4               ./lwip/src/core/tcp.o
tcp_listen_pcbs     0x4               ./lwip/src/core/tcp.o
memp_memory_TCP_SEG_base
                    0x103             ./lwip/src/core/memp.o
CurrentId           0x4               ./Kernal/kernal/PeridicTask.o
ipaddr              0x4               ./enet_io.o
g_pfnSSIHandler     0x4               ./lwip/src/apps/httpd/httpd.o
memp_memory_PBUF_POOL_base
                    0x2103            ./lwip/src/core/memp.o
__lock___env_recursive_mutex
                    0x1               c:/ti/gcc_arm_none_eabi_9_2_1/bin/../lib/gcc/arm-none-eabi/9.2.1/../../../../arm-none-eabi/lib/thumb/v7e-m+fp/hard\libc_nano.a(lib_a-lock.o)
__lock___sinit_recursive_mutex
                    0x1               c:/ti/gcc_arm_none_eabi_9_2_1/bin/../lib/gcc/arm-none-eabi/9.2.1/../../../../arm-none-eabi/lib/thumb/v7e-m+fp/hard\libc_nano.a(lib_a-lock.o)
g_pTxDescriptors    0x120             ./lwip/ports/msp432e4/netif/msp432e4if.o
http_cgi_paramcount
                    0x4               ./lwip/src/apps/httpd/httpd.o
__lock___malloc_recursive_mutex
                    0x1               c:/ti/gcc_arm_none_eabi_9_2_1/bin/../lib/gcc/arm-none-eabi/9.2.1/../../../../arm-none-eabi/lib/thumb/v7e-m+fp/hard\libc_nano.a(lib_a-lock.o)
g_pRxDescriptors    0x120             ./lwip/ports/msp432e4/netif/msp432e4if.o
tcp_input_pcb       0x4               ./lwip/src/core/tcp_in.o
netmask             0x4               ./enet_io.o
dhcp_rx_options_given
                    0xa               ./lwip/src/core/ipv4/dhcp.o
memp_memory_PBUF_base
                    0x103             ./lwip/src/core/memp.o
tcp_bound_pcbs      0x4               ./lwip/src/core/tcp.o
memp_memory_TCP_PCB_LISTEN_base
                    0xe3              ./lwip/src/core/memp.o
g_pfnTimerHandler   0x4               ./lwip/ports/msp432e4/utils/lwiplib.o
g_iNumTags          0x4               ./lwip/src/apps/httpd/httpd.o
netbiosns_pcb       0x4               ./lwip/src/apps/netbiosns/netbiosns.o
memp_memory_UDP_PCB_base
                    0x83              ./lwip/src/core/memp.o
pbuf_free_ooseq_pending
                    0x1               ./lwip/src/core/pbuf.o
gw                  0x4               ./enet_io.o
tcp_tw_pcbs         0x4               ./lwip/src/core/tcp.o
__lock___at_quick_exit_mutex
                    0x1               c:/ti/gcc_arm_none_eabi_9_2_1/bin/../lib/gcc/arm-none-eabi/9.2.1/../../../../arm-none-eabi/lib/thumb/v7e-m+fp/hard\libc_nano.a(lib_a-lock.o)
lwip_stats          0xb8              ./lwip/src/core/stats.o
netif_default       0x4               ./lwip/src/core/netif.o
dhcp_rx_options_val
                    0x28              ./lwip/src/core/ipv4/dhcp.o
g_ui32SysClock      0x4               ./enet_io.o
memp_memory_TCP_PCB_base
                    0x983             ./lwip/src/core/memp.o
memp_memory_SYS_TIMEOUT_base
                    0x63              ./lwip/src/core/memp.o
g_ui32AbnormalInts  0x4               ./lwip/ports/msp432e4/netif/msp432e4if.o
__lock___dd_hash_mutex
                    0x1               c:/ti/gcc_arm_none_eabi_9_2_1/bin/../lib/gcc/arm-none-eabi/9.2.1/../../../../arm-none-eabi/lib/thumb/v7e-m+fp/hard\libc_nano.a(lib_a-lock.o)
__lock___tz_mutex   0x1               c:/ti/gcc_arm_none_eabi_9_2_1/bin/../lib/gcc/arm-none-eabi/9.2.1/../../../../arm-none-eabi/lib/thumb/v7e-m+fp/hard\libc_nano.a(lib_a-lock.o)
g_ui32NormalInts    0x4               ./lwip/ports/msp432e4/netif/msp432e4if.o
ram_heap            0x8013            ./lwip/src/core/mem.o
g_pCGIs             0x4               ./lwip/src/apps/httpd/httpd.o
g_ppcTags           0x4               ./lwip/src/apps/httpd/httpd.o
__lock___sfp_recursive_mutex
                    0x1               c:/ti/gcc_arm_none_eabi_9_2_1/bin/../lib/gcc/arm-none-eabi/9.2.1/../../../../arm-none-eabi/lib/thumb/v7e-m+fp/hard\libc_nano.a(lib_a-lock.o)

Discarded input sections

 .text.FindCGIParameter
                0x00000000       0x48 ./cgifuncs.o
 .text.IsValidHexDigit
                0x00000000       0x40 ./cgifuncs.o
 .text.HexDigit
                0x00000000       0x54 ./cgifuncs.o
 .text.DecodeHexEscape
                0x00000000       0x78 ./cgifuncs.o
 .rodata        0x00000000        0x6 ./cgifuncs.o
 .text.EncodeFormString
                0x00000000       0x8c ./cgifuncs.o
 .text.DecodeFormString
                0x00000000       0xd4 ./cgifuncs.o
 .text.CheckDecimalParam
                0x00000000      0x13c ./cgifuncs.o
 .text.GetCGIParam
                0x00000000       0x56 ./cgifuncs.o
 .text.io_set_led
                0x00000000       0x28 ./io.o
 .rodata        0x00000000        0xd ./io.o
 .text.io_get_ledstate
                0x00000000       0x50 ./io.o
 .text.io_is_led_on
                0x00000000       0x2c ./io.o
 .text.io_set_animation_speed_string
                0x00000000       0x60 ./io.o
 .text.io_set_animation_speed
                0x00000000       0x2c ./io.o
 .text.io_get_animation_speed_string
                0x00000000       0x28 ./io.o
 .text.io_get_animation_speed
                0x00000000       0x18 ./io.o
 .text.fs_read  0x00000000       0x72 ./io_fs.o
 .text.LEDWrite
                0x00000000       0xc4 ./pinout.o
 .text.LEDRead  0x00000000       0x88 ./pinout.o
 .text.SystemCoreClockUpdate
                0x00000000      0x130 ./system_msp432e401y.o
 .rodata.g_pcHex
                0x00000000        0x4 ./uartstdio.o
 .text.UARTgets
                0x00000000       0xf0 ./uartstdio.o
 .text.UARTgetc
                0x00000000       0x28 ./uartstdio.o
 .bss.bLastWasCR.10622
                0x00000000        0x1 ./uartstdio.o
 .rodata.g_pcHex
                0x00000000        0x4 ./ustdlib.o
 .text.usnprintf
                0x00000000       0x30 ./ustdlib.o
 .rodata.g_psDaysToMonth
                0x00000000       0x60 ./ustdlib.o
 .text.ulocaltime
                0x00000000      0x268 ./ustdlib.o
 .text.ucmptime
                0x00000000       0xe4 ./ustdlib.o
 .text.umktime  0x00000000       0xa0 ./ustdlib.o
 .text.ustrtoul
                0x00000000      0x150 ./ustdlib.o
 .rodata.g_pfExponents
                0x00000000       0x18 ./ustdlib.o
 .text.ustrtof  0x00000000      0x274 ./ustdlib.o
 .text.ustrlen  0x00000000       0x2e ./ustdlib.o
 .text.ustrstr  0x00000000       0x40 ./ustdlib.o
 .text.ustrncasecmp
                0x00000000       0xa2 ./ustdlib.o
 .text.ustrcasecmp
                0x00000000       0x20 ./ustdlib.o
 .text.ustrcmp  0x00000000       0x20 ./ustdlib.o
 .text.usrand   0x00000000       0x20 ./ustdlib.o
 .text.urand    0x00000000       0x30 ./ustdlib.o
 .bss.SysTicksNumber
                0x00000000        0x4 ./Kernal/kernal/PeridicTask.o
 .text.__NVIC_DisableIRQ
                0x00000000       0x48 ./Kernal/kernal/SquadRTOS.o
 .text.__NVIC_GetPendingIRQ
                0x00000000       0x44 ./Kernal/kernal/SquadRTOS.o
 .text.vCheckPendingInt
                0x00000000       0x6c ./Kernal/kernal/SquadRTOS.o
 .text.vQueueDelete
                0x00000000       0x20 ./Kernal/kernal/queue.o
 .text.bQueueIsFull
                0x00000000       0x22 ./Kernal/kernal/queue.o
 .text.perf_init
                0x00000000       0x14 ./lwip/ports/msp432e4/perf.o
 .text.LocatorBoardTypeSet
                0x00000000       0x20 ./lwip/ports/msp432e4/utils/locator.o
 .text.LocatorBoardIDSet
                0x00000000       0x20 ./lwip/ports/msp432e4/utils/locator.o
 .text.LocatorClientIPSet
                0x00000000       0x40 ./lwip/ports/msp432e4/utils/locator.o
 .text.LocatorVersionSet
                0x00000000       0x40 ./lwip/ports/msp432e4/utils/locator.o
 .text.lwIPTimerCallbackRegister
                0x00000000       0x20 ./lwip/ports/msp432e4/utils/lwiplib.o
 .text.lwIPLocalNetMaskGet
                0x00000000       0x18 ./lwip/ports/msp432e4/utils/lwiplib.o
 .text.lwIPLocalGWAddrGet
                0x00000000       0x18 ./lwip/ports/msp432e4/utils/lwiplib.o
 .text.lwIPLocalMACGet
                0x00000000       0x28 ./lwip/ports/msp432e4/utils/lwiplib.o
 .text.lwIPPrivateNetworkConfigChange
                0x00000000      0x1bc ./lwip/ports/msp432e4/utils/lwiplib.o
 .text.lwIPNetworkConfigChange
                0x00000000       0x3c ./lwip/ports/msp432e4/utils/lwiplib.o
 .text.lwIPLLDPSend
                0x00000000        0xe ./lwip/ports/msp432e4/utils/lwiplib.o
 .bss.g_pfnUpdateCallback
                0x00000000        0x4 ./lwip/ports/msp432e4/utils/swupdate.o
 .bss.g_psMagicPacketPCB
                0x00000000        0x4 ./lwip/ports/msp432e4/utils/swupdate.o
 .bss.g_pui8MACAddr
                0x00000000        0x6 ./lwip/ports/msp432e4/utils/swupdate.o
 .text.SoftwareUpdateUDPReceive
                0x00000000       0xbc ./lwip/ports/msp432e4/utils/swupdate.o
 .text.SoftwareUpdateInit
                0x00000000       0x98 ./lwip/ports/msp432e4/utils/swupdate.o
 .text.SoftwareUpdateBegin
                0x00000000       0x58 ./lwip/ports/msp432e4/utils/swupdate.o
 .rodata.g_psHTTPHeaderStrings
                0x00000000       0x38 ./lwip/src/apps/httpd/httpd.o
 .rodata.g_pcTagLeadIn
                0x00000000        0x4 ./lwip/src/apps/httpd/httpd.o
 .rodata.g_pcTagLeadOut
                0x00000000        0x4 ./lwip/src/apps/httpd/httpd.o
 .text.http_set_ssi_handler
                0x00000000       0x38 ./lwip/src/apps/httpd/httpd.o
 .text.http_set_cgi_handlers
                0x00000000       0x2c ./lwip/src/apps/httpd/httpd.o
 .bss.lwiperf_all_connections
                0x00000000        0x4 ./lwip/src/apps/lwiperf/lwiperf.o
 .rodata.lwiperf_txbuf_const
                0x00000000      0x640 ./lwip/src/apps/lwiperf/lwiperf.o
 .text.lwiperf_list_add
                0x00000000       0x30 ./lwip/src/apps/lwiperf/lwiperf.o
 .text.lwiperf_list_remove
                0x00000000       0x6c ./lwip/src/apps/lwiperf/lwiperf.o
 .text.lwip_tcp_conn_report
                0x00000000       0x8c ./lwip/src/apps/lwiperf/lwiperf.o
 .text.lwiperf_tcp_close
                0x00000000       0xa2 ./lwip/src/apps/lwiperf/lwiperf.o
 .text.lwiperf_tcp_client_send_more
                0x00000000      0x194 ./lwip/src/apps/lwiperf/lwiperf.o
 .text.lwiperf_tcp_client_sent
                0x00000000       0x2a ./lwip/src/apps/lwiperf/lwiperf.o
 .text.lwiperf_tcp_client_connected
                0x00000000       0x48 ./lwip/src/apps/lwiperf/lwiperf.o
 .text.lwiperf_tx_start
                0x00000000       0xf8 ./lwip/src/apps/lwiperf/lwiperf.o
 .text.lwiperf_tcp_recv
                0x00000000      0x1bc ./lwip/src/apps/lwiperf/lwiperf.o
 .text.lwiperf_tcp_err
                0x00000000       0x20 ./lwip/src/apps/lwiperf/lwiperf.o
 .text.lwiperf_tcp_poll
                0x00000000       0x4c ./lwip/src/apps/lwiperf/lwiperf.o
 .text.lwiperf_tcp_accept
                0x00000000       0xc8 ./lwip/src/apps/lwiperf/lwiperf.o
 .text.lwiperf_start_tcp_server_default
                0x00000000       0x28 ./lwip/src/apps/lwiperf/lwiperf.o
 .text.lwiperf_start_tcp_server
                0x00000000       0xd0 ./lwip/src/apps/lwiperf/lwiperf.o
 .text.lwiperf_abort
                0x00000000       0x64 ./lwip/src/apps/lwiperf/lwiperf.o
 .text.msg_generate_packet_id
                0x00000000       0x38 ./lwip/src/apps/mqtt/mqtt.o
 .text.mqtt_output_send
                0x00000000      0x110 ./lwip/src/apps/mqtt/mqtt.o
 .text.mqtt_create_request
                0x00000000       0x6e ./lwip/src/apps/mqtt/mqtt.o
 .text.mqtt_append_request
                0x00000000       0x62 ./lwip/src/apps/mqtt/mqtt.o
 .text.mqtt_delete_request
                0x00000000       0x20 ./lwip/src/apps/mqtt/mqtt.o
 .text.mqtt_take_request
                0x00000000       0x88 ./lwip/src/apps/mqtt/mqtt.o
 .text.mqtt_request_time_elapsed
                0x00000000       0x82 ./lwip/src/apps/mqtt/mqtt.o
 .text.mqtt_clear_requests
                0x00000000       0x34 ./lwip/src/apps/mqtt/mqtt.o
 .text.mqtt_init_requests
                0x00000000       0x3a ./lwip/src/apps/mqtt/mqtt.o
 .text.mqtt_output_append_u8
                0x00000000       0x2e ./lwip/src/apps/mqtt/mqtt.o
 .text.mqtt_output_append_u16
                0x00000000       0x50 ./lwip/src/apps/mqtt/mqtt.o
 .text.mqtt_output_append_buf
                0x00000000       0x4e ./lwip/src/apps/mqtt/mqtt.o
 .text.mqtt_output_append_string
                0x00000000       0x86 ./lwip/src/apps/mqtt/mqtt.o
 .text.mqtt_output_append_fixed_header
                0x00000000       0x94 ./lwip/src/apps/mqtt/mqtt.o
 .text.mqtt_output_check_space
                0x00000000       0x4c ./lwip/src/apps/mqtt/mqtt.o
 .text.mqtt_close
                0x00000000       0xa0 ./lwip/src/apps/mqtt/mqtt.o
 .text.mqtt_cyclic_timer
                0x00000000      0x110 ./lwip/src/apps/mqtt/mqtt.o
 .text.pub_ack_rec_rel_response
                0x00000000       0x7a ./lwip/src/apps/mqtt/mqtt.o
 .text.mqtt_incomming_suback
                0x00000000       0x36 ./lwip/src/apps/mqtt/mqtt.o
 .text.mqtt_message_received
                0x00000000      0x294 ./lwip/src/apps/mqtt/mqtt.o
 .text.mqtt_parse_incoming
                0x00000000      0x1ac ./lwip/src/apps/mqtt/mqtt.o
 .text.mqtt_tcp_recv_cb
                0x00000000       0x7e ./lwip/src/apps/mqtt/mqtt.o
 .text.mqtt_tcp_sent_cb
                0x00000000       0x74 ./lwip/src/apps/mqtt/mqtt.o
 .text.mqtt_tcp_err_cb
                0x00000000       0x28 ./lwip/src/apps/mqtt/mqtt.o
 .text.mqtt_tcp_poll_cb
                0x00000000       0x2c ./lwip/src/apps/mqtt/mqtt.o
 .text.mqtt_tcp_connect_cb
                0x00000000       0x84 ./lwip/src/apps/mqtt/mqtt.o
 .text.mqtt_publish
                0x00000000      0x134 ./lwip/src/apps/mqtt/mqtt.o
 .text.mqtt_sub_unsub
                0x00000000      0x132 ./lwip/src/apps/mqtt/mqtt.o
 .text.mqtt_set_inpub_callback
                0x00000000       0x2c ./lwip/src/apps/mqtt/mqtt.o
 .text.mqtt_client_new
                0x00000000       0x2c ./lwip/src/apps/mqtt/mqtt.o
 .rodata        0x00000000        0x5 ./lwip/src/apps/mqtt/mqtt.o
 .text.mqtt_client_connect
                0x00000000      0x290 ./lwip/src/apps/mqtt/mqtt.o
 .text.mqtt_disconnect
                0x00000000       0x26 ./lwip/src/apps/mqtt/mqtt.o
 .text.mqtt_client_is_connected
                0x00000000       0x22 ./lwip/src/apps/mqtt/mqtt.o
 .bss.netbiosns_local_name
                0x00000000       0x10 ./lwip/src/apps/netbiosns/netbiosns.o
 .text.netbiosns_name_decode
                0x00000000       0xc0 ./lwip/src/apps/netbiosns/netbiosns.o
 .text.netbiosns_recv
                0x00000000      0x188 ./lwip/src/apps/netbiosns/netbiosns.o
 .text.netbiosns_init
                0x00000000       0x58 ./lwip/src/apps/netbiosns/netbiosns.o
 .text.netbiosns_set_name
                0x00000000       0x34 ./lwip/src/apps/netbiosns/netbiosns.o
 .text.netbiosns_stop
                0x00000000       0x24 ./lwip/src/apps/netbiosns/netbiosns.o
 COMMON         0x00000000        0x4 ./lwip/src/apps/netbiosns/netbiosns.o
 .bss.sntp_opmode
                0x00000000        0x1 ./lwip/src/apps/sntp/sntp.o
 .bss.sntp_pcb  0x00000000        0x4 ./lwip/src/apps/sntp/sntp.o
 .bss.sntp_servers
                0x00000000        0x4 ./lwip/src/apps/sntp/sntp.o
 .bss.sntp_retry_timeout
                0x00000000        0x4 ./lwip/src/apps/sntp/sntp.o
 .text.sntp_process
                0x00000000       0x3c ./lwip/src/apps/sntp/sntp.o
 .text.sntp_initialize_request
                0x00000000       0x20 ./lwip/src/apps/sntp/sntp.o
 .text.sntp_retry
                0x00000000       0x48 ./lwip/src/apps/sntp/sntp.o
 .text.sntp_recv
                0x00000000      0x108 ./lwip/src/apps/sntp/sntp.o
 .text.sntp_send_request
                0x00000000       0x68 ./lwip/src/apps/sntp/sntp.o
 .text.sntp_request
                0x00000000       0x50 ./lwip/src/apps/sntp/sntp.o
 .text.sntp_init
                0x00000000       0x88 ./lwip/src/apps/sntp/sntp.o
 .text.sntp_stop
                0x00000000       0x3c ./lwip/src/apps/sntp/sntp.o
 .text.sntp_enabled
                0x00000000       0x20 ./lwip/src/apps/sntp/sntp.o
 .text.sntp_setoperatingmode
                0x00000000       0x20 ./lwip/src/apps/sntp/sntp.o
 .text.sntp_getoperatingmode
                0x00000000       0x18 ./lwip/src/apps/sntp/sntp.o
 .text.sntp_setserver
                0x00000000       0x40 ./lwip/src/apps/sntp/sntp.o
 .text.sntp_getserver
                0x00000000       0x30 ./lwip/src/apps/sntp/sntp.o
 .bss.tftp_state
                0x00000000       0x24 ./lwip/src/apps/tftp/tftp_server.o
 .text.close_handle
                0x00000000       0x58 ./lwip/src/apps/tftp/tftp_server.o
 .text.send_error
                0x00000000       0x88 ./lwip/src/apps/tftp/tftp_server.o
 .text.send_ack
                0x00000000       0x64 ./lwip/src/apps/tftp/tftp_server.o
 .text.resend_data
                0x00000000       0x60 ./lwip/src/apps/tftp/tftp_server.o
 .rodata        0x00000000      0x13a ./lwip/src/apps/tftp/tftp_server.o
 .text.send_data
                0x00000000       0xb4 ./lwip/src/apps/tftp/tftp_server.o
 .text.recv     0x00000000      0x348 ./lwip/src/apps/tftp/tftp_server.o
 .text.tftp_tmr
                0x00000000       0x70 ./lwip/src/apps/tftp/tftp_server.o
 .text.tftp_init
                0x00000000       0x84 ./lwip/src/apps/tftp/tftp_server.o
 .text.lwip_strnicmp
                0x00000000       0x74 ./lwip/src/core/def.o
 .bss.dns_last_pcb_idx
                0x00000000        0x1 ./lwip/src/core/dns.o
 .bss.dns_seqno
                0x00000000        0x1 ./lwip/src/core/dns.o
 .rodata.dns_mquery_v4group
                0x00000000        0x4 ./lwip/src/core/dns.o
 .text.dns_getserver
                0x00000000       0x30 ./lwip/src/core/dns.o
 .text.dns_lookup
                0x00000000       0x84 ./lwip/src/core/dns.o
 .text.dns_compare_name
                0x00000000       0xb2 ./lwip/src/core/dns.o
 .text.dns_skip_name
                0x00000000       0x84 ./lwip/src/core/dns.o
 .text.dns_alloc_random_port
                0x00000000       0x78 ./lwip/src/core/dns.o
 .text.dns_alloc_pcb
                0x00000000       0xa4 ./lwip/src/core/dns.o
 .text.dns_correct_response
                0x00000000       0x6c ./lwip/src/core/dns.o
 .text.dns_recv
                0x00000000      0x260 ./lwip/src/core/dns.o
 .text.dns_enqueue
                0x00000000      0x26c ./lwip/src/core/dns.o
 .text.dns_gethostbyname
                0x00000000       0x28 ./lwip/src/core/dns.o
 .text.dns_gethostbyname_addrtype
                0x00000000       0x88 ./lwip/src/core/dns.o
 .text.inet_cksum_pseudo_base
                0x00000000       0xd8 ./lwip/src/core/inet_chksum.o
 .text.inet_chksum_pseudo
                0x00000000       0x70 ./lwip/src/core/inet_chksum.o
 .text.ip_chksum_pseudo
                0x00000000       0x2c ./lwip/src/core/inet_chksum.o
 .text.inet_cksum_pseudo_partial_base
                0x00000000       0xfe ./lwip/src/core/inet_chksum.o
 .text.inet_chksum_pseudo_partial
                0x00000000       0x7e ./lwip/src/core/inet_chksum.o
 .text.ip_chksum_pseudo_partial
                0x00000000       0x3a ./lwip/src/core/inet_chksum.o
 .text.inet_chksum
                0x00000000       0x24 ./lwip/src/core/inet_chksum.o
 .text.mem_calloc
                0x00000000       0x44 ./lwip/src/core/mem.o
 .text.memp_malloc_pool
                0x00000000       0x22 ./lwip/src/core/memp.o
 .text.memp_free_pool
                0x00000000       0x28 ./lwip/src/core/memp.o
 .text.netif_input
                0x00000000       0x36 ./lwip/src/core/netif.o
 .text.netif_remove
                0x00000000       0xa8 ./lwip/src/core/netif.o
 .text.netif_find
                0x00000000       0x70 ./lwip/src/core/netif.o
 .text.netif_set_down
                0x00000000       0x44 ./lwip/src/core/netif.o
 .text.pbuf_free_ooseq
                0x00000000       0x58 ./lwip/src/core/pbuf.o
 .text.pbuf_dechain
                0x00000000       0x54 ./lwip/src/core/pbuf.o
 .text.pbuf_coalesce
                0x00000000       0x4e ./lwip/src/core/pbuf.o
 .text.pbuf_get_at
                0x00000000       0x2e ./lwip/src/core/pbuf.o
 .text.pbuf_try_get_at
                0x00000000       0x44 ./lwip/src/core/pbuf.o
 .text.pbuf_memcmp
                0x00000000       0x9e ./lwip/src/core/pbuf.o
 .text.pbuf_memfind
                0x00000000       0x6a ./lwip/src/core/pbuf.o
 .text.pbuf_strstr
                0x00000000       0x5a ./lwip/src/core/pbuf.o
 .rodata        0x00000000       0x76 ./lwip/src/core/tcp.o
 .rodata.tcp_state_str
                0x00000000       0x2c ./lwip/src/core/tcp.o
 .text.tcp_shutdown
                0x00000000       0x90 ./lwip/src/core/tcp.o
 .text.tcp_connect
                0x00000000      0x1cc ./lwip/src/core/tcp.o
 .text.tcp_txnow
                0x00000000       0x38 ./lwip/src/core/tcp.o
 .text.tcp_new  0x00000000       0x10 ./lwip/src/core/tcp.o
 .text.tcp_debug_state_str
                0x00000000       0x24 ./lwip/src/core/tcp.o
 .text.sys_untimeout
                0x00000000       0x8c ./lwip/src/core/timeouts.o
 .text.sys_check_timeouts
                0x00000000       0xa4 ./lwip/src/core/timeouts.o
 .text.sys_restart_timeouts
                0x00000000       0x18 ./lwip/src/core/timeouts.o
 .text.sys_timeouts_sleeptime
                0x00000000       0x4c ./lwip/src/core/timeouts.o
 .text.udp_send
                0x00000000       0x30 ./lwip/src/core/udp.o
 .text.udp_disconnect
                0x00000000       0x2e ./lwip/src/core/udp.o
 .text.udp_new_ip_type
                0x00000000       0x1a ./lwip/src/core/udp.o
 .text.autoip_set_struct
                0x00000000       0x22 ./lwip/src/core/ipv4/autoip.o
 .text.autoip_supplied_address
                0x00000000       0x44 ./lwip/src/core/ipv4/autoip.o
 .text.dhcp_set_struct
                0x00000000       0x22 ./lwip/src/core/ipv4/dhcp.o
 .text.dhcp_cleanup
                0x00000000       0x28 ./lwip/src/core/ipv4/dhcp.o
 .text.dhcp_inform
                0x00000000       0xc4 ./lwip/src/core/ipv4/dhcp.o
 .text.etharp_cleanup_netif
                0x00000000       0x64 ./lwip/src/core/ipv4/etharp.o
 .text.etharp_find_addr
                0x00000000       0x80 ./lwip/src/core/ipv4/etharp.o
 .text.etharp_get_entry
                0x00000000       0x84 ./lwip/src/core/ipv4/etharp.o
 .text.ip4_output
                0x00000000       0x5c ./lwip/src/core/ipv4/ip4.o
 .text.ip4_addr_netmask_valid
                0x00000000       0x58 ./lwip/src/core/ipv4/ip4_addr.o
 .text.ipaddr_addr
                0x00000000       0x2a ./lwip/src/core/ipv4/ip4_addr.o
 .text.ip4addr_aton
                0x00000000      0x264 ./lwip/src/core/ipv4/ip4_addr.o
 .text.ip4addr_ntoa
                0x00000000       0x20 ./lwip/src/core/ipv4/ip4_addr.o
 .text.ip4addr_ntoa_r
                0x00000000      0x104 ./lwip/src/core/ipv4/ip4_addr.o
 .bss.str.6372  0x00000000       0x10 ./lwip/src/core/ipv4/ip4_addr.o
 .text.slipif_output
                0x00000000       0xb6 ./lwip/src/netif/slipif.o
 .text.slipif_output_v4
                0x00000000       0x1e ./lwip/src/netif/slipif.o
 .text.slipif_rxbyte
                0x00000000      0x180 ./lwip/src/netif/slipif.o
 .text.slipif_rxbyte_input
                0x00000000       0x3c ./lwip/src/netif/slipif.o
 .text.slipif_init
                0x00000000       0xa8 ./lwip/src/netif/slipif.o
 .text.slipif_poll
                0x00000000       0x3a ./lwip/src/netif/slipif.o
 .rodata.g_pi16MIIClockDiv
                0x00000000       0x18 C:/ti/simplelink_msp432e4_sdk_4_20_00_12/source\ti/devices/msp432e4/driverlib/lib/gcc/m4f/msp432e4_driverlib.a(emac.o)
 .text.EMACInit
                0x00000000       0xf8 C:/ti/simplelink_msp432e4_sdk_4_20_00_12/source\ti/devices/msp432e4/driverlib/lib/gcc/m4f/msp432e4_driverlib.a(emac.o)
 .text.EMACAddrSet
                0x00000000       0x7c C:/ti/simplelink_msp432e4_sdk_4_20_00_12/source\ti/devices/msp432e4/driverlib/lib/gcc/m4f/msp432e4_driverlib.a(emac.o)
 .text.EMACNumAddrGet
                0x00000000       0x16 C:/ti/simplelink_msp432e4_sdk_4_20_00_12/source\ti/devices/msp432e4/driverlib/lib/gcc/m4f/msp432e4_driverlib.a(emac.o)
 .text.EMACAddrFilterSet
                0x00000000       0x56 C:/ti/simplelink_msp432e4_sdk_4_20_00_12/source\ti/devices/msp432e4/driverlib/lib/gcc/m4f/msp432e4_driverlib.a(emac.o)
 .text.EMACAddrFilterGet
                0x00000000       0x26 C:/ti/simplelink_msp432e4_sdk_4_20_00_12/source\ti/devices/msp432e4/driverlib/lib/gcc/m4f/msp432e4_driverlib.a(emac.o)
 .text.EMACFrameFilterGet
                0x00000000       0x24 C:/ti/simplelink_msp432e4_sdk_4_20_00_12/source\ti/devices/msp432e4/driverlib/lib/gcc/m4f/msp432e4_driverlib.a(emac.o)
 .text.EMACHashFilterSet
                0x00000000       0x2c C:/ti/simplelink_msp432e4_sdk_4_20_00_12/source\ti/devices/msp432e4/driverlib/lib/gcc/m4f/msp432e4_driverlib.a(emac.o)
 .text.EMACHashFilterGet
                0x00000000       0x2c C:/ti/simplelink_msp432e4_sdk_4_20_00_12/source\ti/devices/msp432e4/driverlib/lib/gcc/m4f/msp432e4_driverlib.a(emac.o)
 .text.EMACHashFilterBitCalculate
                0x00000000       0x54 C:/ti/simplelink_msp432e4_sdk_4_20_00_12/source\ti/devices/msp432e4/driverlib/lib/gcc/m4f/msp432e4_driverlib.a(emac.o)
 .text.EMACRxWatchdogTimerSet
                0x00000000       0x24 C:/ti/simplelink_msp432e4_sdk_4_20_00_12/source\ti/devices/msp432e4/driverlib/lib/gcc/m4f/msp432e4_driverlib.a(emac.o)
 .text.EMACStatusGet
                0x00000000       0x1a C:/ti/simplelink_msp432e4_sdk_4_20_00_12/source\ti/devices/msp432e4/driverlib/lib/gcc/m4f/msp432e4_driverlib.a(emac.o)
 .text.EMACRxDMAPollDemand
                0x00000000       0x20 C:/ti/simplelink_msp432e4_sdk_4_20_00_12/source\ti/devices/msp432e4/driverlib/lib/gcc/m4f/msp432e4_driverlib.a(emac.o)
 .text.EMACRxDMADescriptorListGet
                0x00000000       0x1c C:/ti/simplelink_msp432e4_sdk_4_20_00_12/source\ti/devices/msp432e4/driverlib/lib/gcc/m4f/msp432e4_driverlib.a(emac.o)
 .text.EMACRxDMACurrentDescriptorGet
                0x00000000       0x1c C:/ti/simplelink_msp432e4_sdk_4_20_00_12/source\ti/devices/msp432e4/driverlib/lib/gcc/m4f/msp432e4_driverlib.a(emac.o)
 .text.EMACRxDMACurrentBufferGet
                0x00000000       0x1c C:/ti/simplelink_msp432e4_sdk_4_20_00_12/source\ti/devices/msp432e4/driverlib/lib/gcc/m4f/msp432e4_driverlib.a(emac.o)
 .text.EMACTxDMADescriptorListGet
                0x00000000       0x1c C:/ti/simplelink_msp432e4_sdk_4_20_00_12/source\ti/devices/msp432e4/driverlib/lib/gcc/m4f/msp432e4_driverlib.a(emac.o)
 .text.EMACTxDMACurrentDescriptorGet
                0x00000000       0x1c C:/ti/simplelink_msp432e4_sdk_4_20_00_12/source\ti/devices/msp432e4/driverlib/lib/gcc/m4f/msp432e4_driverlib.a(emac.o)
 .text.EMACTxDMACurrentBufferGet
                0x00000000       0x1c C:/ti/simplelink_msp432e4_sdk_4_20_00_12/source\ti/devices/msp432e4/driverlib/lib/gcc/m4f/msp432e4_driverlib.a(emac.o)
 .text.EMACDMAStateGet
                0x00000000       0x24 C:/ti/simplelink_msp432e4_sdk_4_20_00_12/source\ti/devices/msp432e4/driverlib/lib/gcc/m4f/msp432e4_driverlib.a(emac.o)
 .text.EMACTxFlush
                0x00000000       0x48 C:/ti/simplelink_msp432e4_sdk_4_20_00_12/source\ti/devices/msp432e4/driverlib/lib/gcc/m4f/msp432e4_driverlib.a(emac.o)
 .text.EMACTxDisable
                0x00000000       0x34 C:/ti/simplelink_msp432e4_sdk_4_20_00_12/source\ti/devices/msp432e4/driverlib/lib/gcc/m4f/msp432e4_driverlib.a(emac.o)
 .text.EMACRxDisable
                0x00000000       0x34 C:/ti/simplelink_msp432e4_sdk_4_20_00_12/source\ti/devices/msp432e4/driverlib/lib/gcc/m4f/msp432e4_driverlib.a(emac.o)
 .text.EMACIntRegister
                0x00000000       0x20 C:/ti/simplelink_msp432e4_sdk_4_20_00_12/source\ti/devices/msp432e4/driverlib/lib/gcc/m4f/msp432e4_driverlib.a(emac.o)
 .text.EMACIntUnregister
                0x00000000       0x1c C:/ti/simplelink_msp432e4_sdk_4_20_00_12/source\ti/devices/msp432e4/driverlib/lib/gcc/m4f/msp432e4_driverlib.a(emac.o)
 .text.EMACIntDisable
                0x00000000       0x7c C:/ti/simplelink_msp432e4_sdk_4_20_00_12/source\ti/devices/msp432e4/driverlib/lib/gcc/m4f/msp432e4_driverlib.a(emac.o)
 .text.EMACPHYExtendedRead
                0x00000000       0x50 C:/ti/simplelink_msp432e4_sdk_4_20_00_12/source\ti/devices/msp432e4/driverlib/lib/gcc/m4f/msp432e4_driverlib.a(emac.o)
 .text.EMACPHYExtendedWrite
                0x00000000       0x58 C:/ti/simplelink_msp432e4_sdk_4_20_00_12/source\ti/devices/msp432e4/driverlib/lib/gcc/m4f/msp432e4_driverlib.a(emac.o)
 .text.EMACPHYPowerOff
                0x00000000       0x3c C:/ti/simplelink_msp432e4_sdk_4_20_00_12/source\ti/devices/msp432e4/driverlib/lib/gcc/m4f/msp432e4_driverlib.a(emac.o)
 .text.EMACPHYPowerOn
                0x00000000       0x3c C:/ti/simplelink_msp432e4_sdk_4_20_00_12/source\ti/devices/msp432e4/driverlib/lib/gcc/m4f/msp432e4_driverlib.a(emac.o)
 .text.EMACTimestampConfigSet
                0x00000000       0x46 C:/ti/simplelink_msp432e4_sdk_4_20_00_12/source\ti/devices/msp432e4/driverlib/lib/gcc/m4f/msp432e4_driverlib.a(emac.o)
 .text.EMACTimestampConfigGet
                0x00000000       0x2c C:/ti/simplelink_msp432e4_sdk_4_20_00_12/source\ti/devices/msp432e4/driverlib/lib/gcc/m4f/msp432e4_driverlib.a(emac.o)
 .text.EMACTimestampEnable
                0x00000000       0x4c C:/ti/simplelink_msp432e4_sdk_4_20_00_12/source\ti/devices/msp432e4/driverlib/lib/gcc/m4f/msp432e4_driverlib.a(emac.o)
 .text.EMACTimestampDisable
                0x00000000       0x28 C:/ti/simplelink_msp432e4_sdk_4_20_00_12/source\ti/devices/msp432e4/driverlib/lib/gcc/m4f/msp432e4_driverlib.a(emac.o)
 .text.EMACTimestampSysTimeSet
                0x00000000       0x56 C:/ti/simplelink_msp432e4_sdk_4_20_00_12/source\ti/devices/msp432e4/driverlib/lib/gcc/m4f/msp432e4_driverlib.a(emac.o)
 .text.EMACTimestampSysTimeGet
                0x00000000       0x40 C:/ti/simplelink_msp432e4_sdk_4_20_00_12/source\ti/devices/msp432e4/driverlib/lib/gcc/m4f/msp432e4_driverlib.a(emac.o)
 .text.EMACTimestampSysTimeUpdate
                0x00000000       0x68 C:/ti/simplelink_msp432e4_sdk_4_20_00_12/source\ti/devices/msp432e4/driverlib/lib/gcc/m4f/msp432e4_driverlib.a(emac.o)
 .text.EMACTimestampAddendSet
                0x00000000       0x48 C:/ti/simplelink_msp432e4_sdk_4_20_00_12/source\ti/devices/msp432e4/driverlib/lib/gcc/m4f/msp432e4_driverlib.a(emac.o)
 .text.EMACTimestampTargetSet
                0x00000000       0x3e C:/ti/simplelink_msp432e4_sdk_4_20_00_12/source\ti/devices/msp432e4/driverlib/lib/gcc/m4f/msp432e4_driverlib.a(emac.o)
 .text.EMACTimestampTargetIntEnable
                0x00000000       0x28 C:/ti/simplelink_msp432e4_sdk_4_20_00_12/source\ti/devices/msp432e4/driverlib/lib/gcc/m4f/msp432e4_driverlib.a(emac.o)
 .text.EMACTimestampTargetIntDisable
                0x00000000       0x28 C:/ti/simplelink_msp432e4_sdk_4_20_00_12/source\ti/devices/msp432e4/driverlib/lib/gcc/m4f/msp432e4_driverlib.a(emac.o)
 .text.EMACTimestampPPSSimpleModeSet
                0x00000000       0x50 C:/ti/simplelink_msp432e4_sdk_4_20_00_12/source\ti/devices/msp432e4/driverlib/lib/gcc/m4f/msp432e4_driverlib.a(emac.o)
 .text.EMACTimestampPPSCommandModeSet
                0x00000000       0x38 C:/ti/simplelink_msp432e4_sdk_4_20_00_12/source\ti/devices/msp432e4/driverlib/lib/gcc/m4f/msp432e4_driverlib.a(emac.o)
 .text.EMACTimestampPPSCommand
                0x00000000       0x3a C:/ti/simplelink_msp432e4_sdk_4_20_00_12/source\ti/devices/msp432e4/driverlib/lib/gcc/m4f/msp432e4_driverlib.a(emac.o)
 .text.EMACTimestampPPSPeriodSet
                0x00000000       0x30 C:/ti/simplelink_msp432e4_sdk_4_20_00_12/source\ti/devices/msp432e4/driverlib/lib/gcc/m4f/msp432e4_driverlib.a(emac.o)
 .text.EMACVLANRxConfigSet
                0x00000000       0x28 C:/ti/simplelink_msp432e4_sdk_4_20_00_12/source\ti/devices/msp432e4/driverlib/lib/gcc/m4f/msp432e4_driverlib.a(emac.o)
 .text.EMACVLANRxConfigGet
                0x00000000       0x2c C:/ti/simplelink_msp432e4_sdk_4_20_00_12/source\ti/devices/msp432e4/driverlib/lib/gcc/m4f/msp432e4_driverlib.a(emac.o)
 .text.EMACVLANTxConfigSet
                0x00000000       0x2a C:/ti/simplelink_msp432e4_sdk_4_20_00_12/source\ti/devices/msp432e4/driverlib/lib/gcc/m4f/msp432e4_driverlib.a(emac.o)
 .text.EMACVLANTxConfigGet
                0x00000000       0x2e C:/ti/simplelink_msp432e4_sdk_4_20_00_12/source\ti/devices/msp432e4/driverlib/lib/gcc/m4f/msp432e4_driverlib.a(emac.o)
 .text.EMACVLANHashFilterBitCalculate
                0x00000000       0x58 C:/ti/simplelink_msp432e4_sdk_4_20_00_12/source\ti/devices/msp432e4/driverlib/lib/gcc/m4f/msp432e4_driverlib.a(emac.o)
 .text.EMACVLANHashFilterSet
                0x00000000       0x22 C:/ti/simplelink_msp432e4_sdk_4_20_00_12/source\ti/devices/msp432e4/driverlib/lib/gcc/m4f/msp432e4_driverlib.a(emac.o)
 .text.EMACVLANHashFilterGet
                0x00000000       0x1c C:/ti/simplelink_msp432e4_sdk_4_20_00_12/source\ti/devices/msp432e4/driverlib/lib/gcc/m4f/msp432e4_driverlib.a(emac.o)
 .text.EMACRemoteWakeUpFrameFilterSet
                0x00000000       0x4c C:/ti/simplelink_msp432e4_sdk_4_20_00_12/source\ti/devices/msp432e4/driverlib/lib/gcc/m4f/msp432e4_driverlib.a(emac.o)
 .text.EMACRemoteWakeUpFrameFilterGet
                0x00000000       0x4e C:/ti/simplelink_msp432e4_sdk_4_20_00_12/source\ti/devices/msp432e4/driverlib/lib/gcc/m4f/msp432e4_driverlib.a(emac.o)
 .text.EMACPowerManagementControlSet
                0x00000000       0x3c C:/ti/simplelink_msp432e4_sdk_4_20_00_12/source\ti/devices/msp432e4/driverlib/lib/gcc/m4f/msp432e4_driverlib.a(emac.o)
 .text.EMACPowerManagementControlGet
                0x00000000       0x20 C:/ti/simplelink_msp432e4_sdk_4_20_00_12/source\ti/devices/msp432e4/driverlib/lib/gcc/m4f/msp432e4_driverlib.a(emac.o)
 .text.EMACWoLEnter
                0x00000000       0x66 C:/ti/simplelink_msp432e4_sdk_4_20_00_12/source\ti/devices/msp432e4/driverlib/lib/gcc/m4f/msp432e4_driverlib.a(emac.o)
 .text.EMACLPIConfig
                0x00000000       0x6c C:/ti/simplelink_msp432e4_sdk_4_20_00_12/source\ti/devices/msp432e4/driverlib/lib/gcc/m4f/msp432e4_driverlib.a(emac.o)
 .text.EMACLPIEnter
                0x00000000       0x24 C:/ti/simplelink_msp432e4_sdk_4_20_00_12/source\ti/devices/msp432e4/driverlib/lib/gcc/m4f/msp432e4_driverlib.a(emac.o)
 .text.EMACLPIStatus
                0x00000000       0x1c C:/ti/simplelink_msp432e4_sdk_4_20_00_12/source\ti/devices/msp432e4/driverlib/lib/gcc/m4f/msp432e4_driverlib.a(emac.o)
 .text.EMACLPILinkSet
                0x00000000       0x24 C:/ti/simplelink_msp432e4_sdk_4_20_00_12/source\ti/devices/msp432e4/driverlib/lib/gcc/m4f/msp432e4_driverlib.a(emac.o)
 .text.EMACLPILinkClear
                0x00000000       0x24 C:/ti/simplelink_msp432e4_sdk_4_20_00_12/source\ti/devices/msp432e4/driverlib/lib/gcc/m4f/msp432e4_driverlib.a(emac.o)
 .text.EMACPHYMMDWrite
                0x00000000       0x66 C:/ti/simplelink_msp432e4_sdk_4_20_00_12/source\ti/devices/msp432e4/driverlib/lib/gcc/m4f/msp432e4_driverlib.a(emac.o)
 .text.EMACPHYMMDRead
                0x00000000       0x5e C:/ti/simplelink_msp432e4_sdk_4_20_00_12/source\ti/devices/msp432e4/driverlib/lib/gcc/m4f/msp432e4_driverlib.a(emac.o)
 .rodata.g_pui32FMPPERegs
                0x00000000       0x40 C:/ti/simplelink_msp432e4_sdk_4_20_00_12/source\ti/devices/msp432e4/driverlib/lib/gcc/m4f/msp432e4_driverlib.a(flash.o)
 .rodata.g_pui32FMPRERegs
                0x00000000       0x40 C:/ti/simplelink_msp432e4_sdk_4_20_00_12/source\ti/devices/msp432e4/driverlib/lib/gcc/m4f/msp432e4_driverlib.a(flash.o)
 .text.FlashErase
                0x00000000       0x60 C:/ti/simplelink_msp432e4_sdk_4_20_00_12/source\ti/devices/msp432e4/driverlib/lib/gcc/m4f/msp432e4_driverlib.a(flash.o)
 .text.FlashProgram
                0x00000000       0xb4 C:/ti/simplelink_msp432e4_sdk_4_20_00_12/source\ti/devices/msp432e4/driverlib/lib/gcc/m4f/msp432e4_driverlib.a(flash.o)
 .text.FlashProtectGet
                0x00000000       0x78 C:/ti/simplelink_msp432e4_sdk_4_20_00_12/source\ti/devices/msp432e4/driverlib/lib/gcc/m4f/msp432e4_driverlib.a(flash.o)
 .text.FlashProtectSet
                0x00000000       0xf4 C:/ti/simplelink_msp432e4_sdk_4_20_00_12/source\ti/devices/msp432e4/driverlib/lib/gcc/m4f/msp432e4_driverlib.a(flash.o)
 .text.FlashProtectSave
                0x00000000       0x4c C:/ti/simplelink_msp432e4_sdk_4_20_00_12/source\ti/devices/msp432e4/driverlib/lib/gcc/m4f/msp432e4_driverlib.a(flash.o)
 .text.FlashUserGet
                0x00000000       0x30 C:/ti/simplelink_msp432e4_sdk_4_20_00_12/source\ti/devices/msp432e4/driverlib/lib/gcc/m4f/msp432e4_driverlib.a(flash.o)
 .text.FlashUserSet
                0x00000000       0x2c C:/ti/simplelink_msp432e4_sdk_4_20_00_12/source\ti/devices/msp432e4/driverlib/lib/gcc/m4f/msp432e4_driverlib.a(flash.o)
 .text.FlashAllUserRegisterGet
                0x00000000       0x4c C:/ti/simplelink_msp432e4_sdk_4_20_00_12/source\ti/devices/msp432e4/driverlib/lib/gcc/m4f/msp432e4_driverlib.a(flash.o)
 .text.FlashAllUserRegisterSet
                0x00000000       0x44 C:/ti/simplelink_msp432e4_sdk_4_20_00_12/source\ti/devices/msp432e4/driverlib/lib/gcc/m4f/msp432e4_driverlib.a(flash.o)
 .text.FlashUserSave
                0x00000000       0x58 C:/ti/simplelink_msp432e4_sdk_4_20_00_12/source\ti/devices/msp432e4/driverlib/lib/gcc/m4f/msp432e4_driverlib.a(flash.o)
 .text.FlashAllUserRegisterSave
                0x00000000       0x50 C:/ti/simplelink_msp432e4_sdk_4_20_00_12/source\ti/devices/msp432e4/driverlib/lib/gcc/m4f/msp432e4_driverlib.a(flash.o)
 .text.FlashIntRegister
                0x00000000       0x1e C:/ti/simplelink_msp432e4_sdk_4_20_00_12/source\ti/devices/msp432e4/driverlib/lib/gcc/m4f/msp432e4_driverlib.a(flash.o)
 .text.FlashIntUnregister
                0x00000000       0x14 C:/ti/simplelink_msp432e4_sdk_4_20_00_12/source\ti/devices/msp432e4/driverlib/lib/gcc/m4f/msp432e4_driverlib.a(flash.o)
 .text.FlashIntEnable
                0x00000000       0x24 C:/ti/simplelink_msp432e4_sdk_4_20_00_12/source\ti/devices/msp432e4/driverlib/lib/gcc/m4f/msp432e4_driverlib.a(flash.o)
 .text.FlashIntDisable
                0x00000000       0x28 C:/ti/simplelink_msp432e4_sdk_4_20_00_12/source\ti/devices/msp432e4/driverlib/lib/gcc/m4f/msp432e4_driverlib.a(flash.o)
 .text.FlashIntStatus
                0x00000000       0x30 C:/ti/simplelink_msp432e4_sdk_4_20_00_12/source\ti/devices/msp432e4/driverlib/lib/gcc/m4f/msp432e4_driverlib.a(flash.o)
 .text.FlashIntClear
                0x00000000       0x20 C:/ti/simplelink_msp432e4_sdk_4_20_00_12/source\ti/devices/msp432e4/driverlib/lib/gcc/m4f/msp432e4_driverlib.a(flash.o)
 .rodata.g_ppui32GPIOIntMap
                0x00000000       0x90 C:/ti/simplelink_msp432e4_sdk_4_20_00_12/source\ti/devices/msp432e4/driverlib/lib/gcc/m4f/msp432e4_driverlib.a(gpio.o)
 .rodata.g_ui32GPIOIntMapRows
                0x00000000        0x4 C:/ti/simplelink_msp432e4_sdk_4_20_00_12/source\ti/devices/msp432e4/driverlib/lib/gcc/m4f/msp432e4_driverlib.a(gpio.o)
 .rodata.g_pui32GPIOBaseAddrs
                0x00000000       0x48 C:/ti/simplelink_msp432e4_sdk_4_20_00_12/source\ti/devices/msp432e4/driverlib/lib/gcc/m4f/msp432e4_driverlib.a(gpio.o)
 .text._GPIOIntNumberGet
                0x00000000       0x54 C:/ti/simplelink_msp432e4_sdk_4_20_00_12/source\ti/devices/msp432e4/driverlib/lib/gcc/m4f/msp432e4_driverlib.a(gpio.o)
 .text.GPIODirModeGet
                0x00000000       0x5a C:/ti/simplelink_msp432e4_sdk_4_20_00_12/source\ti/devices/msp432e4/driverlib/lib/gcc/m4f/msp432e4_driverlib.a(gpio.o)
 .text.GPIOIntTypeSet
                0x00000000       0xd0 C:/ti/simplelink_msp432e4_sdk_4_20_00_12/source\ti/devices/msp432e4/driverlib/lib/gcc/m4f/msp432e4_driverlib.a(gpio.o)
 .text.GPIOIntTypeGet
                0x00000000       0x96 C:/ti/simplelink_msp432e4_sdk_4_20_00_12/source\ti/devices/msp432e4/driverlib/lib/gcc/m4f/msp432e4_driverlib.a(gpio.o)
 .text.GPIOPadConfigGet
                0x00000000      0x182 C:/ti/simplelink_msp432e4_sdk_4_20_00_12/source\ti/devices/msp432e4/driverlib/lib/gcc/m4f/msp432e4_driverlib.a(gpio.o)
 .text.GPIOIntEnable
                0x00000000       0x2c C:/ti/simplelink_msp432e4_sdk_4_20_00_12/source\ti/devices/msp432e4/driverlib/lib/gcc/m4f/msp432e4_driverlib.a(gpio.o)
 .text.GPIOIntDisable
                0x00000000       0x2c C:/ti/simplelink_msp432e4_sdk_4_20_00_12/source\ti/devices/msp432e4/driverlib/lib/gcc/m4f/msp432e4_driverlib.a(gpio.o)
 .text.GPIOIntStatus
                0x00000000       0x30 C:/ti/simplelink_msp432e4_sdk_4_20_00_12/source\ti/devices/msp432e4/driverlib/lib/gcc/m4f/msp432e4_driverlib.a(gpio.o)
 .text.GPIOIntClear
                0x00000000       0x22 C:/ti/simplelink_msp432e4_sdk_4_20_00_12/source\ti/devices/msp432e4/driverlib/lib/gcc/m4f/msp432e4_driverlib.a(gpio.o)
 .text.GPIOIntRegister
                0x00000000       0x28 C:/ti/simplelink_msp432e4_sdk_4_20_00_12/source\ti/devices/msp432e4/driverlib/lib/gcc/m4f/msp432e4_driverlib.a(gpio.o)
 .text.GPIOIntUnregister
                0x00000000       0x24 C:/ti/simplelink_msp432e4_sdk_4_20_00_12/source\ti/devices/msp432e4/driverlib/lib/gcc/m4f/msp432e4_driverlib.a(gpio.o)
 .text.GPIOIntRegisterPin
                0x00000000       0x36 C:/ti/simplelink_msp432e4_sdk_4_20_00_12/source\ti/devices/msp432e4/driverlib/lib/gcc/m4f/msp432e4_driverlib.a(gpio.o)
 .text.GPIOIntUnregisterPin
                0x00000000       0x32 C:/ti/simplelink_msp432e4_sdk_4_20_00_12/source\ti/devices/msp432e4/driverlib/lib/gcc/m4f/msp432e4_driverlib.a(gpio.o)
 .text.GPIOPinRead
                0x00000000       0x24 C:/ti/simplelink_msp432e4_sdk_4_20_00_12/source\ti/devices/msp432e4/driverlib/lib/gcc/m4f/msp432e4_driverlib.a(gpio.o)
 .text.GPIOPinWrite
                0x00000000       0x2c C:/ti/simplelink_msp432e4_sdk_4_20_00_12/source\ti/devices/msp432e4/driverlib/lib/gcc/m4f/msp432e4_driverlib.a(gpio.o)
 .text.GPIOPinTypeADC
                0x00000000       0x2c C:/ti/simplelink_msp432e4_sdk_4_20_00_12/source\ti/devices/msp432e4/driverlib/lib/gcc/m4f/msp432e4_driverlib.a(gpio.o)
 .text.GPIOPinTypeCAN
                0x00000000       0x2c C:/ti/simplelink_msp432e4_sdk_4_20_00_12/source\ti/devices/msp432e4/driverlib/lib/gcc/m4f/msp432e4_driverlib.a(gpio.o)
 .text.GPIOPinTypeComparator
                0x00000000       0x2c C:/ti/simplelink_msp432e4_sdk_4_20_00_12/source\ti/devices/msp432e4/driverlib/lib/gcc/m4f/msp432e4_driverlib.a(gpio.o)
 .text.GPIOPinTypeComparatorOutput
                0x00000000       0x2c C:/ti/simplelink_msp432e4_sdk_4_20_00_12/source\ti/devices/msp432e4/driverlib/lib/gcc/m4f/msp432e4_driverlib.a(gpio.o)
 .text.GPIOPinTypeDIVSCLK
                0x00000000       0x2c C:/ti/simplelink_msp432e4_sdk_4_20_00_12/source\ti/devices/msp432e4/driverlib/lib/gcc/m4f/msp432e4_driverlib.a(gpio.o)
 .text.GPIOPinTypeEPI
                0x00000000       0x2c C:/ti/simplelink_msp432e4_sdk_4_20_00_12/source\ti/devices/msp432e4/driverlib/lib/gcc/m4f/msp432e4_driverlib.a(gpio.o)
 .text.GPIOPinTypeEthernetMII
                0x00000000       0x2c C:/ti/simplelink_msp432e4_sdk_4_20_00_12/source\ti/devices/msp432e4/driverlib/lib/gcc/m4f/msp432e4_driverlib.a(gpio.o)
 .text.GPIOPinTypeGPIOInput
                0x00000000       0x2c C:/ti/simplelink_msp432e4_sdk_4_20_00_12/source\ti/devices/msp432e4/driverlib/lib/gcc/m4f/msp432e4_driverlib.a(gpio.o)
 .text.GPIOPinTypeGPIOOutput
                0x00000000       0x2c C:/ti/simplelink_msp432e4_sdk_4_20_00_12/source\ti/devices/msp432e4/driverlib/lib/gcc/m4f/msp432e4_driverlib.a(gpio.o)
 .text.GPIOPinTypeGPIOOutputOD
                0x00000000       0x2c C:/ti/simplelink_msp432e4_sdk_4_20_00_12/source\ti/devices/msp432e4/driverlib/lib/gcc/m4f/msp432e4_driverlib.a(gpio.o)
 .text.GPIOPinTypeHibernateRTCCLK
                0x00000000       0x2c C:/ti/simplelink_msp432e4_sdk_4_20_00_12/source\ti/devices/msp432e4/driverlib/lib/gcc/m4f/msp432e4_driverlib.a(gpio.o)
 .text.GPIOPinTypeI2C
                0x00000000       0x2c C:/ti/simplelink_msp432e4_sdk_4_20_00_12/source\ti/devices/msp432e4/driverlib/lib/gcc/m4f/msp432e4_driverlib.a(gpio.o)
 .text.GPIOPinTypeI2CSCL
                0x00000000       0x2c C:/ti/simplelink_msp432e4_sdk_4_20_00_12/source\ti/devices/msp432e4/driverlib/lib/gcc/m4f/msp432e4_driverlib.a(gpio.o)
 .text.GPIOPinTypeLCD
                0x00000000       0x2c C:/ti/simplelink_msp432e4_sdk_4_20_00_12/source\ti/devices/msp432e4/driverlib/lib/gcc/m4f/msp432e4_driverlib.a(gpio.o)
 .text.GPIOPinTypeOneWire
                0x00000000       0x2c C:/ti/simplelink_msp432e4_sdk_4_20_00_12/source\ti/devices/msp432e4/driverlib/lib/gcc/m4f/msp432e4_driverlib.a(gpio.o)
 .text.GPIOPinTypePWM
                0x00000000       0x2c C:/ti/simplelink_msp432e4_sdk_4_20_00_12/source\ti/devices/msp432e4/driverlib/lib/gcc/m4f/msp432e4_driverlib.a(gpio.o)
 .text.GPIOPinTypeQEI
                0x00000000       0x2c C:/ti/simplelink_msp432e4_sdk_4_20_00_12/source\ti/devices/msp432e4/driverlib/lib/gcc/m4f/msp432e4_driverlib.a(gpio.o)
 .text.GPIOPinTypeSSI
                0x00000000       0x2c C:/ti/simplelink_msp432e4_sdk_4_20_00_12/source\ti/devices/msp432e4/driverlib/lib/gcc/m4f/msp432e4_driverlib.a(gpio.o)
 .text.GPIOPinTypeTimer
                0x00000000       0x2c C:/ti/simplelink_msp432e4_sdk_4_20_00_12/source\ti/devices/msp432e4/driverlib/lib/gcc/m4f/msp432e4_driverlib.a(gpio.o)
 .text.GPIOPinTypeTrace
                0x00000000       0x2c C:/ti/simplelink_msp432e4_sdk_4_20_00_12/source\ti/devices/msp432e4/driverlib/lib/gcc/m4f/msp432e4_driverlib.a(gpio.o)
 .text.GPIOPinTypeUART
                0x00000000       0x2c C:/ti/simplelink_msp432e4_sdk_4_20_00_12/source\ti/devices/msp432e4/driverlib/lib/gcc/m4f/msp432e4_driverlib.a(gpio.o)
 .text.GPIOPinTypeUSBAnalog
                0x00000000       0x2c C:/ti/simplelink_msp432e4_sdk_4_20_00_12/source\ti/devices/msp432e4/driverlib/lib/gcc/m4f/msp432e4_driverlib.a(gpio.o)
 .text.GPIOPinTypeUSBDigital
                0x00000000       0x2c C:/ti/simplelink_msp432e4_sdk_4_20_00_12/source\ti/devices/msp432e4/driverlib/lib/gcc/m4f/msp432e4_driverlib.a(gpio.o)
 .text.GPIOPinTypeWakeHigh
                0x00000000       0x2e C:/ti/simplelink_msp432e4_sdk_4_20_00_12/source\ti/devices/msp432e4/driverlib/lib/gcc/m4f/msp432e4_driverlib.a(gpio.o)
 .text.GPIOPinTypeWakeLow
                0x00000000       0x2e C:/ti/simplelink_msp432e4_sdk_4_20_00_12/source\ti/devices/msp432e4/driverlib/lib/gcc/m4f/msp432e4_driverlib.a(gpio.o)
 .text.GPIOPinWakeStatus
                0x00000000       0x1c C:/ti/simplelink_msp432e4_sdk_4_20_00_12/source\ti/devices/msp432e4/driverlib/lib/gcc/m4f/msp432e4_driverlib.a(gpio.o)
 .text.GPIOPinConfigure
                0x00000000       0x5c C:/ti/simplelink_msp432e4_sdk_4_20_00_12/source\ti/devices/msp432e4/driverlib/lib/gcc/m4f/msp432e4_driverlib.a(gpio.o)
 .text.GPIODMATriggerEnable
                0x00000000       0x32 C:/ti/simplelink_msp432e4_sdk_4_20_00_12/source\ti/devices/msp432e4/driverlib/lib/gcc/m4f/msp432e4_driverlib.a(gpio.o)
 .text.GPIODMATriggerDisable
                0x00000000       0x3a C:/ti/simplelink_msp432e4_sdk_4_20_00_12/source\ti/devices/msp432e4/driverlib/lib/gcc/m4f/msp432e4_driverlib.a(gpio.o)
 .text.GPIOADCTriggerEnable
                0x00000000       0x32 C:/ti/simplelink_msp432e4_sdk_4_20_00_12/source\ti/devices/msp432e4/driverlib/lib/gcc/m4f/msp432e4_driverlib.a(gpio.o)
 .text.GPIOADCTriggerDisable
                0x00000000       0x3a C:/ti/simplelink_msp432e4_sdk_4_20_00_12/source\ti/devices/msp432e4/driverlib/lib/gcc/m4f/msp432e4_driverlib.a(gpio.o)
 .rodata.g_pui32Priority
                0x00000000       0x20 C:/ti/simplelink_msp432e4_sdk_4_20_00_12/source\ti/devices/msp432e4/driverlib/lib/gcc/m4f/msp432e4_driverlib.a(interrupt.o)
 .rodata.g_pui32Regs
                0x00000000       0x9c C:/ti/simplelink_msp432e4_sdk_4_20_00_12/source\ti/devices/msp432e4/driverlib/lib/gcc/m4f/msp432e4_driverlib.a(interrupt.o)
 .rodata.g_pui32Dii16Regs
                0x00000000       0x14 C:/ti/simplelink_msp432e4_sdk_4_20_00_12/source\ti/devices/msp432e4/driverlib/lib/gcc/m4f/msp432e4_driverlib.a(interrupt.o)
 .rodata.g_pui32PendRegs
                0x00000000       0x14 C:/ti/simplelink_msp432e4_sdk_4_20_00_12/source\ti/devices/msp432e4/driverlib/lib/gcc/m4f/msp432e4_driverlib.a(interrupt.o)
 .rodata.g_pui32UnpendRegs
                0x00000000       0x14 C:/ti/simplelink_msp432e4_sdk_4_20_00_12/source\ti/devices/msp432e4/driverlib/lib/gcc/m4f/msp432e4_driverlib.a(interrupt.o)
 .text._IntDefaultHandler
                0x00000000        0x6 C:/ti/simplelink_msp432e4_sdk_4_20_00_12/source\ti/devices/msp432e4/driverlib/lib/gcc/m4f/msp432e4_driverlib.a(interrupt.o)
 vtable         0x00000000      0x26c C:/ti/simplelink_msp432e4_sdk_4_20_00_12/source\ti/devices/msp432e4/driverlib/lib/gcc/m4f/msp432e4_driverlib.a(interrupt.o)
 .text.IntMasterDisable
                0x00000000       0x18 C:/ti/simplelink_msp432e4_sdk_4_20_00_12/source\ti/devices/msp432e4/driverlib/lib/gcc/m4f/msp432e4_driverlib.a(interrupt.o)
 .text.IntRegister
                0x00000000       0x64 C:/ti/simplelink_msp432e4_sdk_4_20_00_12/source\ti/devices/msp432e4/driverlib/lib/gcc/m4f/msp432e4_driverlib.a(interrupt.o)
 .text.IntUnregister
                0x00000000       0x28 C:/ti/simplelink_msp432e4_sdk_4_20_00_12/source\ti/devices/msp432e4/driverlib/lib/gcc/m4f/msp432e4_driverlib.a(interrupt.o)
 .text.IntPriorityGroupingSet
                0x00000000       0x30 C:/ti/simplelink_msp432e4_sdk_4_20_00_12/source\ti/devices/msp432e4/driverlib/lib/gcc/m4f/msp432e4_driverlib.a(interrupt.o)
 .text.IntPriorityGroupingGet
                0x00000000       0x4c C:/ti/simplelink_msp432e4_sdk_4_20_00_12/source\ti/devices/msp432e4/driverlib/lib/gcc/m4f/msp432e4_driverlib.a(interrupt.o)
 .text.IntPrioritySet
                0x00000000       0x68 C:/ti/simplelink_msp432e4_sdk_4_20_00_12/source\ti/devices/msp432e4/driverlib/lib/gcc/m4f/msp432e4_driverlib.a(interrupt.o)
 .text.IntPriorityGet
                0x00000000       0x34 C:/ti/simplelink_msp432e4_sdk_4_20_00_12/source\ti/devices/msp432e4/driverlib/lib/gcc/m4f/msp432e4_driverlib.a(interrupt.o)
 .text.IntDisable
                0x00000000       0x94 C:/ti/simplelink_msp432e4_sdk_4_20_00_12/source\ti/devices/msp432e4/driverlib/lib/gcc/m4f/msp432e4_driverlib.a(interrupt.o)
 .text.IntIsEnabled
                0x00000000       0x94 C:/ti/simplelink_msp432e4_sdk_4_20_00_12/source\ti/devices/msp432e4/driverlib/lib/gcc/m4f/msp432e4_driverlib.a(interrupt.o)
 .text.IntPendSet
                0x00000000       0x7c C:/ti/simplelink_msp432e4_sdk_4_20_00_12/source\ti/devices/msp432e4/driverlib/lib/gcc/m4f/msp432e4_driverlib.a(interrupt.o)
 .text.IntPendClear
                0x00000000       0x68 C:/ti/simplelink_msp432e4_sdk_4_20_00_12/source\ti/devices/msp432e4/driverlib/lib/gcc/m4f/msp432e4_driverlib.a(interrupt.o)
 .text.IntPriorityMaskSet
                0x00000000       0x16 C:/ti/simplelink_msp432e4_sdk_4_20_00_12/source\ti/devices/msp432e4/driverlib/lib/gcc/m4f/msp432e4_driverlib.a(interrupt.o)
 .text.IntPriorityMaskGet
                0x00000000        0xe C:/ti/simplelink_msp432e4_sdk_4_20_00_12/source\ti/devices/msp432e4/driverlib/lib/gcc/m4f/msp432e4_driverlib.a(interrupt.o)
 .text.IntTrigger
                0x00000000       0x20 C:/ti/simplelink_msp432e4_sdk_4_20_00_12/source\ti/devices/msp432e4/driverlib/lib/gcc/m4f/msp432e4_driverlib.a(interrupt.o)
 .rodata.g_pui8Crc8CCITT
                0x00000000      0x100 C:/ti/simplelink_msp432e4_sdk_4_20_00_12/source\ti/devices/msp432e4/driverlib/lib/gcc/m4f/msp432e4_driverlib.a(sw_crc.o)
 .rodata.g_pui16Crc16
                0x00000000      0x200 C:/ti/simplelink_msp432e4_sdk_4_20_00_12/source\ti/devices/msp432e4/driverlib/lib/gcc/m4f/msp432e4_driverlib.a(sw_crc.o)
 .rodata.g_pui32Crc32
                0x00000000      0x400 C:/ti/simplelink_msp432e4_sdk_4_20_00_12/source\ti/devices/msp432e4/driverlib/lib/gcc/m4f/msp432e4_driverlib.a(sw_crc.o)
 .text.Crc8CCITT
                0x00000000      0x150 C:/ti/simplelink_msp432e4_sdk_4_20_00_12/source\ti/devices/msp432e4/driverlib/lib/gcc/m4f/msp432e4_driverlib.a(sw_crc.o)
 .text.Crc16    0x00000000      0x1c8 C:/ti/simplelink_msp432e4_sdk_4_20_00_12/source\ti/devices/msp432e4/driverlib/lib/gcc/m4f/msp432e4_driverlib.a(sw_crc.o)
 .text.Crc16Array
                0x00000000       0x22 C:/ti/simplelink_msp432e4_sdk_4_20_00_12/source\ti/devices/msp432e4/driverlib/lib/gcc/m4f/msp432e4_driverlib.a(sw_crc.o)
 .text.Crc16Array3
                0x00000000      0x154 C:/ti/simplelink_msp432e4_sdk_4_20_00_12/source\ti/devices/msp432e4/driverlib/lib/gcc/m4f/msp432e4_driverlib.a(sw_crc.o)
 .text.Crc32    0x00000000      0x1b0 C:/ti/simplelink_msp432e4_sdk_4_20_00_12/source\ti/devices/msp432e4/driverlib/lib/gcc/m4f/msp432e4_driverlib.a(sw_crc.o)
 .text.SysCtlSRAMSizeGet
                0x00000000       0x1c C:/ti/simplelink_msp432e4_sdk_4_20_00_12/source\ti/devices/msp432e4/driverlib/lib/gcc/m4f/msp432e4_driverlib.a(sysctl.o)
 .text.SysCtlFlashSizeGet
                0x00000000       0x1c C:/ti/simplelink_msp432e4_sdk_4_20_00_12/source\ti/devices/msp432e4/driverlib/lib/gcc/m4f/msp432e4_driverlib.a(sysctl.o)
 .text.SysCtlFlashSectorSizeGet
                0x00000000       0x24 C:/ti/simplelink_msp432e4_sdk_4_20_00_12/source\ti/devices/msp432e4/driverlib/lib/gcc/m4f/msp432e4_driverlib.a(sysctl.o)
 .text.SysCtlPeripheralPresent
                0x00000000       0x58 C:/ti/simplelink_msp432e4_sdk_4_20_00_12/source\ti/devices/msp432e4/driverlib/lib/gcc/m4f/msp432e4_driverlib.a(sysctl.o)
 .text.SysCtlPeripheralPowerOn
                0x00000000       0x50 C:/ti/simplelink_msp432e4_sdk_4_20_00_12/source\ti/devices/msp432e4/driverlib/lib/gcc/m4f/msp432e4_driverlib.a(sysctl.o)
 .text.SysCtlPeripheralPowerOff
                0x00000000       0x50 C:/ti/simplelink_msp432e4_sdk_4_20_00_12/source\ti/devices/msp432e4/driverlib/lib/gcc/m4f/msp432e4_driverlib.a(sysctl.o)
 .text.SysCtlPeripheralEnable
                0x00000000       0x50 C:/ti/simplelink_msp432e4_sdk_4_20_00_12/source\ti/devices/msp432e4/driverlib/lib/gcc/m4f/msp432e4_driverlib.a(sysctl.o)
 .text.SysCtlPeripheralDisable
                0x00000000       0x50 C:/ti/simplelink_msp432e4_sdk_4_20_00_12/source\ti/devices/msp432e4/driverlib/lib/gcc/m4f/msp432e4_driverlib.a(sysctl.o)
 .text.SysCtlPeripheralSleepEnable
                0x00000000       0x50 C:/ti/simplelink_msp432e4_sdk_4_20_00_12/source\ti/devices/msp432e4/driverlib/lib/gcc/m4f/msp432e4_driverlib.a(sysctl.o)
 .text.SysCtlPeripheralSleepDisable
                0x00000000       0x50 C:/ti/simplelink_msp432e4_sdk_4_20_00_12/source\ti/devices/msp432e4/driverlib/lib/gcc/m4f/msp432e4_driverlib.a(sysctl.o)
 .text.SysCtlPeripheralDeepSleepEnable
                0x00000000       0x50 C:/ti/simplelink_msp432e4_sdk_4_20_00_12/source\ti/devices/msp432e4/driverlib/lib/gcc/m4f/msp432e4_driverlib.a(sysctl.o)
 .text.SysCtlPeripheralDeepSleepDisable
                0x00000000       0x50 C:/ti/simplelink_msp432e4_sdk_4_20_00_12/source\ti/devices/msp432e4/driverlib/lib/gcc/m4f/msp432e4_driverlib.a(sysctl.o)
 .text.SysCtlPeripheralClockGating
                0x00000000       0x3c C:/ti/simplelink_msp432e4_sdk_4_20_00_12/source\ti/devices/msp432e4/driverlib/lib/gcc/m4f/msp432e4_driverlib.a(sysctl.o)
 .text.SysCtlIntRegister
                0x00000000       0x1e C:/ti/simplelink_msp432e4_sdk_4_20_00_12/source\ti/devices/msp432e4/driverlib/lib/gcc/m4f/msp432e4_driverlib.a(sysctl.o)
 .text.SysCtlIntUnregister
                0x00000000       0x14 C:/ti/simplelink_msp432e4_sdk_4_20_00_12/source\ti/devices/msp432e4/driverlib/lib/gcc/m4f/msp432e4_driverlib.a(sysctl.o)
 .text.SysCtlIntEnable
                0x00000000       0x24 C:/ti/simplelink_msp432e4_sdk_4_20_00_12/source\ti/devices/msp432e4/driverlib/lib/gcc/m4f/msp432e4_driverlib.a(sysctl.o)
 .text.SysCtlIntDisable
                0x00000000       0x28 C:/ti/simplelink_msp432e4_sdk_4_20_00_12/source\ti/devices/msp432e4/driverlib/lib/gcc/m4f/msp432e4_driverlib.a(sysctl.o)
 .text.SysCtlIntClear
                0x00000000       0x20 C:/ti/simplelink_msp432e4_sdk_4_20_00_12/source\ti/devices/msp432e4/driverlib/lib/gcc/m4f/msp432e4_driverlib.a(sysctl.o)
 .text.SysCtlIntStatus
                0x00000000       0x30 C:/ti/simplelink_msp432e4_sdk_4_20_00_12/source\ti/devices/msp432e4/driverlib/lib/gcc/m4f/msp432e4_driverlib.a(sysctl.o)
 .text.SysCtlLDODeepSleepSet
                0x00000000       0x20 C:/ti/simplelink_msp432e4_sdk_4_20_00_12/source\ti/devices/msp432e4/driverlib/lib/gcc/m4f/msp432e4_driverlib.a(sysctl.o)
 .text.SysCtlLDODeepSleepGet
                0x00000000       0x18 C:/ti/simplelink_msp432e4_sdk_4_20_00_12/source\ti/devices/msp432e4/driverlib/lib/gcc/m4f/msp432e4_driverlib.a(sysctl.o)
 .text.SysCtlSleepPowerSet
                0x00000000       0x20 C:/ti/simplelink_msp432e4_sdk_4_20_00_12/source\ti/devices/msp432e4/driverlib/lib/gcc/m4f/msp432e4_driverlib.a(sysctl.o)
 .text.SysCtlDeepSleepPowerSet
                0x00000000       0x20 C:/ti/simplelink_msp432e4_sdk_4_20_00_12/source\ti/devices/msp432e4/driverlib/lib/gcc/m4f/msp432e4_driverlib.a(sysctl.o)
 .text.SysCtlReset
                0x00000000       0x14 C:/ti/simplelink_msp432e4_sdk_4_20_00_12/source\ti/devices/msp432e4/driverlib/lib/gcc/m4f/msp432e4_driverlib.a(sysctl.o)
 .text.SysCtlSleep
                0x00000000        0xc C:/ti/simplelink_msp432e4_sdk_4_20_00_12/source\ti/devices/msp432e4/driverlib/lib/gcc/m4f/msp432e4_driverlib.a(sysctl.o)
 .text.SysCtlDeepSleep
                0x00000000       0x28 C:/ti/simplelink_msp432e4_sdk_4_20_00_12/source\ti/devices/msp432e4/driverlib/lib/gcc/m4f/msp432e4_driverlib.a(sysctl.o)
 .text.SysCtlResetCauseGet
                0x00000000       0x18 C:/ti/simplelink_msp432e4_sdk_4_20_00_12/source\ti/devices/msp432e4/driverlib/lib/gcc/m4f/msp432e4_driverlib.a(sysctl.o)
 .text.SysCtlResetCauseClear
                0x00000000       0x28 C:/ti/simplelink_msp432e4_sdk_4_20_00_12/source\ti/devices/msp432e4/driverlib/lib/gcc/m4f/msp432e4_driverlib.a(sysctl.o)
 .text.SysCtlPIOSCCalibrate
                0x00000000       0x74 C:/ti/simplelink_msp432e4_sdk_4_20_00_12/source\ti/devices/msp432e4/driverlib/lib/gcc/m4f/msp432e4_driverlib.a(sysctl.o)
 .text.SysCtlResetBehaviorSet
                0x00000000       0x20 C:/ti/simplelink_msp432e4_sdk_4_20_00_12/source\ti/devices/msp432e4/driverlib/lib/gcc/m4f/msp432e4_driverlib.a(sysctl.o)
 .text.SysCtlResetBehaviorGet
                0x00000000       0x18 C:/ti/simplelink_msp432e4_sdk_4_20_00_12/source\ti/devices/msp432e4/driverlib/lib/gcc/m4f/msp432e4_driverlib.a(sysctl.o)
 .text.SysCtlDeepSleepClockConfigSet
                0x00000000       0x7c C:/ti/simplelink_msp432e4_sdk_4_20_00_12/source\ti/devices/msp432e4/driverlib/lib/gcc/m4f/msp432e4_driverlib.a(sysctl.o)
 .text.SysCtlVoltageEventConfig
                0x00000000       0x20 C:/ti/simplelink_msp432e4_sdk_4_20_00_12/source\ti/devices/msp432e4/driverlib/lib/gcc/m4f/msp432e4_driverlib.a(sysctl.o)
 .text.SysCtlVoltageEventStatus
                0x00000000       0x18 C:/ti/simplelink_msp432e4_sdk_4_20_00_12/source\ti/devices/msp432e4/driverlib/lib/gcc/m4f/msp432e4_driverlib.a(sysctl.o)
 .text.SysCtlVoltageEventClear
                0x00000000       0x24 C:/ti/simplelink_msp432e4_sdk_4_20_00_12/source\ti/devices/msp432e4/driverlib/lib/gcc/m4f/msp432e4_driverlib.a(sysctl.o)
 .text.SysCtlVCOGet
                0x00000000       0xb8 C:/ti/simplelink_msp432e4_sdk_4_20_00_12/source\ti/devices/msp432e4/driverlib/lib/gcc/m4f/msp432e4_driverlib.a(sysctl.o)
 .text.SysCtlNMIStatus
                0x00000000       0x18 C:/ti/simplelink_msp432e4_sdk_4_20_00_12/source\ti/devices/msp432e4/driverlib/lib/gcc/m4f/msp432e4_driverlib.a(sysctl.o)
 .text.SysCtlNMIClear
                0x00000000       0x28 C:/ti/simplelink_msp432e4_sdk_4_20_00_12/source\ti/devices/msp432e4/driverlib/lib/gcc/m4f/msp432e4_driverlib.a(sysctl.o)
 .text.SysCtlClockOutConfig
                0x00000000       0x28 C:/ti/simplelink_msp432e4_sdk_4_20_00_12/source\ti/devices/msp432e4/driverlib/lib/gcc/m4f/msp432e4_driverlib.a(sysctl.o)
 .text.SysCtlAltClkConfig
                0x00000000       0x20 C:/ti/simplelink_msp432e4_sdk_4_20_00_12/source\ti/devices/msp432e4/driverlib/lib/gcc/m4f/msp432e4_driverlib.a(sysctl.o)
 .text.SysTickEnable
                0x00000000       0x20 C:/ti/simplelink_msp432e4_sdk_4_20_00_12/source\ti/devices/msp432e4/driverlib/lib/gcc/m4f/msp432e4_driverlib.a(systick.o)
 .text.SysTickDisable
                0x00000000       0x20 C:/ti/simplelink_msp432e4_sdk_4_20_00_12/source\ti/devices/msp432e4/driverlib/lib/gcc/m4f/msp432e4_driverlib.a(systick.o)
 .text.SysTickIntRegister
                0x00000000       0x28 C:/ti/simplelink_msp432e4_sdk_4_20_00_12/source\ti/devices/msp432e4/driverlib/lib/gcc/m4f/msp432e4_driverlib.a(systick.o)
 .text.SysTickIntUnregister
                0x00000000       0x20 C:/ti/simplelink_msp432e4_sdk_4_20_00_12/source\ti/devices/msp432e4/driverlib/lib/gcc/m4f/msp432e4_driverlib.a(systick.o)
 .text.SysTickIntEnable
                0x00000000       0x20 C:/ti/simplelink_msp432e4_sdk_4_20_00_12/source\ti/devices/msp432e4/driverlib/lib/gcc/m4f/msp432e4_driverlib.a(systick.o)
 .text.SysTickIntDisable
                0x00000000       0x20 C:/ti/simplelink_msp432e4_sdk_4_20_00_12/source\ti/devices/msp432e4/driverlib/lib/gcc/m4f/msp432e4_driverlib.a(systick.o)
 .text.SysTickPeriodSet
                0x00000000       0x20 C:/ti/simplelink_msp432e4_sdk_4_20_00_12/source\ti/devices/msp432e4/driverlib/lib/gcc/m4f/msp432e4_driverlib.a(systick.o)
 .text.SysTickPeriodGet
                0x00000000       0x18 C:/ti/simplelink_msp432e4_sdk_4_20_00_12/source\ti/devices/msp432e4/driverlib/lib/gcc/m4f/msp432e4_driverlib.a(systick.o)
 .text.SysTickValueGet
                0x00000000       0x18 C:/ti/simplelink_msp432e4_sdk_4_20_00_12/source\ti/devices/msp432e4/driverlib/lib/gcc/m4f/msp432e4_driverlib.a(systick.o)
 .text.CPUcpsid
                0x00000000        0xe C:/ti/simplelink_msp432e4_sdk_4_20_00_12/source\ti/devices/msp432e4/driverlib/lib/gcc/m4f/msp432e4_driverlib.a(cpu.o)
 .text.CPUprimask
                0x00000000        0xc C:/ti/simplelink_msp432e4_sdk_4_20_00_12/source\ti/devices/msp432e4/driverlib/lib/gcc/m4f/msp432e4_driverlib.a(cpu.o)
 .text.CPUwfi   0x00000000        0x6 C:/ti/simplelink_msp432e4_sdk_4_20_00_12/source\ti/devices/msp432e4/driverlib/lib/gcc/m4f/msp432e4_driverlib.a(cpu.o)
 .text.CPUbasepriSet
                0x00000000        0x8 C:/ti/simplelink_msp432e4_sdk_4_20_00_12/source\ti/devices/msp432e4/driverlib/lib/gcc/m4f/msp432e4_driverlib.a(cpu.o)
 .text.CPUbasepriGet
                0x00000000        0xc C:/ti/simplelink_msp432e4_sdk_4_20_00_12/source\ti/devices/msp432e4/driverlib/lib/gcc/m4f/msp432e4_driverlib.a(cpu.o)
 .text.srand    0x00000000       0x48 c:/ti/gcc_arm_none_eabi_9_2_1/bin/../lib/gcc/arm-none-eabi/9.2.1/../../../../arm-none-eabi/lib/thumb/v7e-m+fp/hard\libc_nano.a(lib_a-rand.o)
 .text.cleanup_glue
                0x00000000       0x1a c:/ti/gcc_arm_none_eabi_9_2_1/bin/../lib/gcc/arm-none-eabi/9.2.1/../../../../arm-none-eabi/lib/thumb/v7e-m+fp/hard\libc_nano.a(lib_a-reent.o)
 .text._reclaim_reent
                0x00000000       0xb8 c:/ti/gcc_arm_none_eabi_9_2_1/bin/../lib/gcc/arm-none-eabi/9.2.1/../../../../arm-none-eabi/lib/thumb/v7e-m+fp/hard\libc_nano.a(lib_a-reent.o)
 .text.__retarget_lock_init
                0x00000000        0x2 c:/ti/gcc_arm_none_eabi_9_2_1/bin/../lib/gcc/arm-none-eabi/9.2.1/../../../../arm-none-eabi/lib/thumb/v7e-m+fp/hard\libc_nano.a(lib_a-lock.o)
 .text.__retarget_lock_init_recursive
                0x00000000        0x2 c:/ti/gcc_arm_none_eabi_9_2_1/bin/../lib/gcc/arm-none-eabi/9.2.1/../../../../arm-none-eabi/lib/thumb/v7e-m+fp/hard\libc_nano.a(lib_a-lock.o)
 .text.__retarget_lock_close
                0x00000000        0x2 c:/ti/gcc_arm_none_eabi_9_2_1/bin/../lib/gcc/arm-none-eabi/9.2.1/../../../../arm-none-eabi/lib/thumb/v7e-m+fp/hard\libc_nano.a(lib_a-lock.o)
 .text.__retarget_lock_close_recursive
                0x00000000        0x2 c:/ti/gcc_arm_none_eabi_9_2_1/bin/../lib/gcc/arm-none-eabi/9.2.1/../../../../arm-none-eabi/lib/thumb/v7e-m+fp/hard\libc_nano.a(lib_a-lock.o)
 .text.__retarget_lock_acquire
                0x00000000        0x2 c:/ti/gcc_arm_none_eabi_9_2_1/bin/../lib/gcc/arm-none-eabi/9.2.1/../../../../arm-none-eabi/lib/thumb/v7e-m+fp/hard\libc_nano.a(lib_a-lock.o)
 .text.__retarget_lock_try_acquire
                0x00000000        0x4 c:/ti/gcc_arm_none_eabi_9_2_1/bin/../lib/gcc/arm-none-eabi/9.2.1/../../../../arm-none-eabi/lib/thumb/v7e-m+fp/hard\libc_nano.a(lib_a-lock.o)
 .text.__retarget_lock_try_acquire_recursive
                0x00000000        0x4 c:/ti/gcc_arm_none_eabi_9_2_1/bin/../lib/gcc/arm-none-eabi/9.2.1/../../../../arm-none-eabi/lib/thumb/v7e-m+fp/hard\libc_nano.a(lib_a-lock.o)
 .text.__retarget_lock_release
                0x00000000        0x2 c:/ti/gcc_arm_none_eabi_9_2_1/bin/../lib/gcc/arm-none-eabi/9.2.1/../../../../arm-none-eabi/lib/thumb/v7e-m+fp/hard\libc_nano.a(lib_a-lock.o)
 .eh_frame      0x00000000        0x4 c:/ti/gcc_arm_none_eabi_9_2_1/bin/../lib/gcc/arm-none-eabi/9.2.1/thumb/v7e-m+fp/hard/crtend.o

Memory Configuration

Name             Origin             Length             Attributes
FLASH            0x00000000         0x00100000         xr
SRAM             0x20000000         0x00040000         xw
*default*        0x00000000         0xffffffff

Linker script and memory map

LOAD c:/ti/gcc_arm_none_eabi_9_2_1/bin/../lib/gcc/arm-none-eabi/9.2.1/thumb/v7e-m+fp/hard/crti.o
LOAD c:/ti/gcc_arm_none_eabi_9_2_1/bin/../lib/gcc/arm-none-eabi/9.2.1/thumb/v7e-m+fp/hard/crtbegin.o
LOAD c:/ti/gcc_arm_none_eabi_9_2_1/bin/../lib/gcc/arm-none-eabi/9.2.1/../../../../arm-none-eabi/lib/thumb/v7e-m+fp/hard/crt0.o
LOAD ./RTE.o
LOAD ./cgifuncs.o
LOAD ./enet_io.o
LOAD ./io.o
LOAD ./io_fs.o
LOAD ./pinout.o
LOAD ./system_msp432e401y.o
LOAD ./uartstdio.o
LOAD ./ustdlib.o
LOAD ./Kernal/kernal/List.o
LOAD ./Kernal/kernal/Mutex.o
LOAD ./Kernal/kernal/PeridicTask.o
LOAD ./Kernal/kernal/SquadRTOS.o
LOAD ./Kernal/kernal/SquadRTOS_Handlers.o
LOAD ./Kernal/kernal/SquadRTOS_Systemcall.o
LOAD ./Kernal/kernal/kenal.o
LOAD ./Kernal/kernal/mailBox.o
LOAD ./Kernal/kernal/queue.o
LOAD ./Kernal/kernal/thread.o
LOAD ./gcc/startup_msp432e401y_gcc.o
LOAD ./lwip/ports/msp432e4/netif/msp432e4if.o
LOAD ./lwip/ports/msp432e4/perf.o
LOAD ./lwip/ports/msp432e4/sys_arch.o
LOAD ./lwip/ports/msp432e4/utils/locator.o
LOAD ./lwip/ports/msp432e4/utils/lwiplib.o
LOAD ./lwip/ports/msp432e4/utils/swupdate.o
LOAD ./lwip/src/api/api_lib.o
LOAD ./lwip/src/api/api_msg.o
LOAD ./lwip/src/api/err.o
LOAD ./lwip/src/api/netbuf.o
LOAD ./lwip/src/api/netdb.o
LOAD ./lwip/src/api/netifapi.o
LOAD ./lwip/src/api/sockets.o
LOAD ./lwip/src/api/tcpip.o
LOAD ./lwip/src/apps/httpd/httpd.o
LOAD ./lwip/src/apps/lwiperf/lwiperf.o
LOAD ./lwip/src/apps/mdns/mdns.o
LOAD ./lwip/src/apps/mqtt/mqtt.o
LOAD ./lwip/src/apps/netbiosns/netbiosns.o
LOAD ./lwip/src/apps/snmp/snmp_asn1.o
LOAD ./lwip/src/apps/snmp/snmp_core.o
LOAD ./lwip/src/apps/snmp/snmp_mib2.o
LOAD ./lwip/src/apps/snmp/snmp_mib2_icmp.o
LOAD ./lwip/src/apps/snmp/snmp_mib2_interfaces.o
LOAD ./lwip/src/apps/snmp/snmp_mib2_ip.o
LOAD ./lwip/src/apps/snmp/snmp_mib2_snmp.o
LOAD ./lwip/src/apps/snmp/snmp_mib2_system.o
LOAD ./lwip/src/apps/snmp/snmp_mib2_tcp.o
LOAD ./lwip/src/apps/snmp/snmp_mib2_udp.o
LOAD ./lwip/src/apps/snmp/snmp_msg.o
LOAD ./lwip/src/apps/snmp/snmp_netconn.o
LOAD ./lwip/src/apps/snmp/snmp_pbuf_stream.o
LOAD ./lwip/src/apps/snmp/snmp_raw.o
LOAD ./lwip/src/apps/snmp/snmp_scalar.o
LOAD ./lwip/src/apps/snmp/snmp_table.o
LOAD ./lwip/src/apps/snmp/snmp_threadsync.o
LOAD ./lwip/src/apps/snmp/snmp_traps.o
LOAD ./lwip/src/apps/snmp/snmpv3.o
LOAD ./lwip/src/apps/snmp/snmpv3_dummy.o
LOAD ./lwip/src/apps/snmp/snmpv3_mbedtls.o
LOAD ./lwip/src/apps/sntp/sntp.o
LOAD ./lwip/src/apps/tftp/tftp_server.o
LOAD ./lwip/src/core/def.o
LOAD ./lwip/src/core/dns.o
LOAD ./lwip/src/core/inet_chksum.o
LOAD ./lwip/src/core/init.o
LOAD ./lwip/src/core/ip.o
LOAD ./lwip/src/core/mem.o
LOAD ./lwip/src/core/memp.o
LOAD ./lwip/src/core/netif.o
LOAD ./lwip/src/core/pbuf.o
LOAD ./lwip/src/core/raw.o
LOAD ./lwip/src/core/stats.o
LOAD ./lwip/src/core/sys.o
LOAD ./lwip/src/core/tcp.o
LOAD ./lwip/src/core/tcp_in.o
LOAD ./lwip/src/core/tcp_out.o
LOAD ./lwip/src/core/timeouts.o
LOAD ./lwip/src/core/udp.o
LOAD ./lwip/src/core/ipv4/autoip.o
LOAD ./lwip/src/core/ipv4/dhcp.o
LOAD ./lwip/src/core/ipv4/etharp.o
LOAD ./lwip/src/core/ipv4/icmp.o
LOAD ./lwip/src/core/ipv4/igmp.o
LOAD ./lwip/src/core/ipv4/ip4.o
LOAD ./lwip/src/core/ipv4/ip4_addr.o
LOAD ./lwip/src/core/ipv4/ip4_frag.o
LOAD ./lwip/src/core/ipv6/dhcp6.o
LOAD ./lwip/src/core/ipv6/ethip6.o
LOAD ./lwip/src/core/ipv6/icmp6.o
LOAD ./lwip/src/core/ipv6/inet6.o
LOAD ./lwip/src/core/ipv6/ip6.o
LOAD ./lwip/src/core/ipv6/ip6_addr.o
LOAD ./lwip/src/core/ipv6/ip6_frag.o
LOAD ./lwip/src/core/ipv6/mld6.o
LOAD ./lwip/src/core/ipv6/nd6.o
LOAD ./lwip/src/netif/ethernet.o
LOAD ./lwip/src/netif/ethernetif.o
LOAD ./lwip/src/netif/lowpan6.o
LOAD ./lwip/src/netif/slipif.o
LOAD ./lwip/src/netif/ppp/auth.o
LOAD ./lwip/src/netif/ppp/ccp.o
LOAD ./lwip/src/netif/ppp/chap-md5.o
LOAD ./lwip/src/netif/ppp/chap-new.o
LOAD ./lwip/src/netif/ppp/chap_ms.o
LOAD ./lwip/src/netif/ppp/demand.o
LOAD ./lwip/src/netif/ppp/eap.o
LOAD ./lwip/src/netif/ppp/ecp.o
LOAD ./lwip/src/netif/ppp/eui64.o
LOAD ./lwip/src/netif/ppp/fsm.o
LOAD ./lwip/src/netif/ppp/ipcp.o
LOAD ./lwip/src/netif/ppp/ipv6cp.o
LOAD ./lwip/src/netif/ppp/lcp.o
LOAD ./lwip/src/netif/ppp/magic.o
LOAD ./lwip/src/netif/ppp/mppe.o
LOAD ./lwip/src/netif/ppp/multilink.o
LOAD ./lwip/src/netif/ppp/ppp.o
LOAD ./lwip/src/netif/ppp/pppapi.o
LOAD ./lwip/src/netif/ppp/pppcrypt.o
LOAD ./lwip/src/netif/ppp/pppoe.o
LOAD ./lwip/src/netif/ppp/pppol2tp.o
LOAD ./lwip/src/netif/ppp/pppos.o
LOAD ./lwip/src/netif/ppp/upap.o
LOAD ./lwip/src/netif/ppp/utils.o
LOAD ./lwip/src/netif/ppp/vj.o
LOAD ./lwip/src/netif/ppp/polarssl/arc4.o
LOAD ./lwip/src/netif/ppp/polarssl/des.o
LOAD ./lwip/src/netif/ppp/polarssl/md4.o
LOAD ./lwip/src/netif/ppp/polarssl/md5.o
LOAD ./lwip/src/netif/ppp/polarssl/sha1.o
                0x00000000                PROVIDE (_intvecs_base_address = DEFINED (_intvecs_base_address)?_intvecs_base_address:0x0)

.intvecs        0x00000000      0x208
 *(.intvecs)
 .intvecs       0x00000000      0x208 ./gcc/startup_msp432e401y_gcc.o
                0x00000000                interruptVectors
                0x20000000                PROVIDE (_vtable_base_address = DEFINED (_vtable_base_address)?_vtable_base_address:0x20000000)

.vtable
 *(.vtable)

.text           0x00000208    0x10f00
 CREATE_OBJECT_SYMBOLS
 *(.text)
 .text          0x00000208        0x0 c:/ti/gcc_arm_none_eabi_9_2_1/bin/../lib/gcc/arm-none-eabi/9.2.1/thumb/v7e-m+fp/hard/crti.o
 .text          0x00000208       0x40 c:/ti/gcc_arm_none_eabi_9_2_1/bin/../lib/gcc/arm-none-eabi/9.2.1/thumb/v7e-m+fp/hard/crtbegin.o
 .text          0x00000248       0x74 c:/ti/gcc_arm_none_eabi_9_2_1/bin/../lib/gcc/arm-none-eabi/9.2.1/../../../../arm-none-eabi/lib/thumb/v7e-m+fp/hard/crt0.o
                0x00000248                _start
                0x00000248                _mainCRTStartup
 .text          0x000002bc        0x0 ./RTE.o
 .text          0x000002bc        0x0 ./cgifuncs.o
 .text          0x000002bc        0x0 ./enet_io.o
 .text          0x000002bc        0x0 ./io.o
 .text          0x000002bc        0x0 ./io_fs.o
 .text          0x000002bc        0x0 ./pinout.o
 .text          0x000002bc        0x0 ./system_msp432e401y.o
 .text          0x000002bc        0x0 ./uartstdio.o
 .text          0x000002bc        0x0 ./ustdlib.o
 .text          0x000002bc        0x0 ./Kernal/kernal/List.o
 .text          0x000002bc        0x0 ./Kernal/kernal/Mutex.o
 .text          0x000002bc        0x0 ./Kernal/kernal/PeridicTask.o
 .text          0x000002bc        0x0 ./Kernal/kernal/SquadRTOS.o
 .text          0x000002bc       0x7c ./Kernal/kernal/SquadRTOS_Handlers.o
                0x000002bc                SquadRTOS_SVC_Handler
                0x000002dc                SquadRTOS_PendSV_Handler
 .text          0x00000338       0x4c ./Kernal/kernal/SquadRTOS_Systemcall.o
                0x00000338                SquadRTOS_SVC_vthreadCreate
                0x0000033c                SquadRTOS_SVC_vSchedulerStart
                0x00000340                SquadRTOS_SVC_vDelay
                0x00000344                SquadRTOS_SVC_vTaskTimeOut
                0x00000348                SquadRTOS_SVC_vRecieve
                0x0000034c                SquadRTOS_SVC_vChangePriority
                0x00000350                SquadRTOS_SVC_vthreadDestroy
                0x00000354                SquadRTOS_SVC_vTaskResume
                0x00000358                SquadRTOS_SVC_vMakeTimer
                0x0000035c                SquadRTOS_SVC_vDeleteTimer
                0x00000360                SquadRTOS_SVC_vStart
                0x00000364                SquadRTOS_SVC_vEnd
                0x00000368                SquadRTOS_SVC_ChangePeriod
                0x0000036c                SquadRTOS_SVC_vCreateMutex
                0x00000370                SquadRTOS_SVC_vTakeMutex
                0x00000374                SquadRTOS_SVC_vReleaseMutex
                0x00000378                SquadRTOS_SVC_vMailboxCreate
                0x0000037c                SquadRTOS_SVC_u32MailboxRead
                0x00000380                SquadRTOS_SVC_u32MailboxWrite
 .text          0x00000384        0x0 ./Kernal/kernal/kenal.o
 .text          0x00000384        0x0 ./Kernal/kernal/mailBox.o
 .text          0x00000384        0x0 ./Kernal/kernal/queue.o
 .text          0x00000384        0x0 ./Kernal/kernal/thread.o
 .text          0x00000384        0x0 ./gcc/startup_msp432e401y_gcc.o
 .text          0x00000384        0x0 ./lwip/ports/msp432e4/netif/msp432e4if.o
 .text          0x00000384        0x0 ./lwip/ports/msp432e4/perf.o
 .text          0x00000384        0x0 ./lwip/ports/msp432e4/sys_arch.o
 .text          0x00000384        0x0 ./lwip/ports/msp432e4/utils/locator.o
 .text          0x00000384        0x0 ./lwip/ports/msp432e4/utils/lwiplib.o
 .text          0x00000384        0x0 ./lwip/ports/msp432e4/utils/swupdate.o
 .text          0x00000384        0x0 ./lwip/src/api/api_lib.o
 .text          0x00000384        0x0 ./lwip/src/api/api_msg.o
 .text          0x00000384        0x0 ./lwip/src/api/err.o
 .text          0x00000384        0x0 ./lwip/src/api/netbuf.o
 .text          0x00000384        0x0 ./lwip/src/api/netdb.o
 .text          0x00000384        0x0 ./lwip/src/api/netifapi.o
 .text          0x00000384        0x0 ./lwip/src/api/sockets.o
 .text          0x00000384        0x0 ./lwip/src/api/tcpip.o
 .text          0x00000384        0x0 ./lwip/src/apps/httpd/httpd.o
 .text          0x00000384        0x0 ./lwip/src/apps/lwiperf/lwiperf.o
 .text          0x00000384        0x0 ./lwip/src/apps/mdns/mdns.o
 .text          0x00000384        0x0 ./lwip/src/apps/mqtt/mqtt.o
 .text          0x00000384        0x0 ./lwip/src/apps/netbiosns/netbiosns.o
 .text          0x00000384        0x0 ./lwip/src/apps/snmp/snmp_asn1.o
 .text          0x00000384        0x0 ./lwip/src/apps/snmp/snmp_core.o
 .text          0x00000384        0x0 ./lwip/src/apps/snmp/snmp_mib2.o
 .text          0x00000384        0x0 ./lwip/src/apps/snmp/snmp_mib2_icmp.o
 .text          0x00000384        0x0 ./lwip/src/apps/snmp/snmp_mib2_interfaces.o
 .text          0x00000384        0x0 ./lwip/src/apps/snmp/snmp_mib2_ip.o
 .text          0x00000384        0x0 ./lwip/src/apps/snmp/snmp_mib2_snmp.o
 .text          0x00000384        0x0 ./lwip/src/apps/snmp/snmp_mib2_system.o
 .text          0x00000384        0x0 ./lwip/src/apps/snmp/snmp_mib2_tcp.o
 .text          0x00000384        0x0 ./lwip/src/apps/snmp/snmp_mib2_udp.o
 .text          0x00000384        0x0 ./lwip/src/apps/snmp/snmp_msg.o
 .text          0x00000384        0x0 ./lwip/src/apps/snmp/snmp_netconn.o
 .text          0x00000384        0x0 ./lwip/src/apps/snmp/snmp_pbuf_stream.o
 .text          0x00000384        0x0 ./lwip/src/apps/snmp/snmp_raw.o
 .text          0x00000384        0x0 ./lwip/src/apps/snmp/snmp_scalar.o
 .text          0x00000384        0x0 ./lwip/src/apps/snmp/snmp_table.o
 .text          0x00000384        0x0 ./lwip/src/apps/snmp/snmp_threadsync.o
 .text          0x00000384        0x0 ./lwip/src/apps/snmp/snmp_traps.o
 .text          0x00000384        0x0 ./lwip/src/apps/snmp/snmpv3.o
 .text          0x00000384        0x0 ./lwip/src/apps/snmp/snmpv3_dummy.o
 .text          0x00000384        0x0 ./lwip/src/apps/snmp/snmpv3_mbedtls.o
 .text          0x00000384        0x0 ./lwip/src/apps/sntp/sntp.o
 .text          0x00000384        0x0 ./lwip/src/apps/tftp/tftp_server.o
 .text          0x00000384        0x0 ./lwip/src/core/def.o
 .text          0x00000384        0x0 ./lwip/src/core/dns.o
 .text          0x00000384        0x0 ./lwip/src/core/inet_chksum.o
 .text          0x00000384        0x0 ./lwip/src/core/init.o
 .text          0x00000384        0x0 ./lwip/src/core/ip.o
 .text          0x00000384        0x0 ./lwip/src/core/mem.o
 .text          0x00000384        0x0 ./lwip/src/core/memp.o
 .text          0x00000384        0x0 ./lwip/src/core/netif.o
 .text          0x00000384        0x0 ./lwip/src/core/pbuf.o
 .text          0x00000384        0x0 ./lwip/src/core/raw.o
 .text          0x00000384        0x0 ./lwip/src/core/stats.o
 .text          0x00000384        0x0 ./lwip/src/core/sys.o
 .text          0x00000384        0x0 ./lwip/src/core/tcp.o
 .text          0x00000384        0x0 ./lwip/src/core/tcp_in.o
 .text          0x00000384        0x0 ./lwip/src/core/tcp_out.o
 .text          0x00000384        0x0 ./lwip/src/core/timeouts.o
 .text          0x00000384        0x0 ./lwip/src/core/udp.o
 .text          0x00000384        0x0 ./lwip/src/core/ipv4/autoip.o
 .text          0x00000384        0x0 ./lwip/src/core/ipv4/dhcp.o
 .text          0x00000384        0x0 ./lwip/src/core/ipv4/etharp.o
 .text          0x00000384        0x0 ./lwip/src/core/ipv4/icmp.o
 .text          0x00000384        0x0 ./lwip/src/core/ipv4/igmp.o
 .text          0x00000384        0x0 ./lwip/src/core/ipv4/ip4.o
 .text          0x00000384        0x0 ./lwip/src/core/ipv4/ip4_addr.o
 .text          0x00000384        0x0 ./lwip/src/core/ipv4/ip4_frag.o
 .text          0x00000384        0x0 ./lwip/src/core/ipv6/dhcp6.o
 .text          0x00000384        0x0 ./lwip/src/core/ipv6/ethip6.o
 .text          0x00000384        0x0 ./lwip/src/core/ipv6/icmp6.o
 .text          0x00000384        0x0 ./lwip/src/core/ipv6/inet6.o
 .text          0x00000384        0x0 ./lwip/src/core/ipv6/ip6.o
 .text          0x00000384        0x0 ./lwip/src/core/ipv6/ip6_addr.o
 .text          0x00000384        0x0 ./lwip/src/core/ipv6/ip6_frag.o
 .text          0x00000384        0x0 ./lwip/src/core/ipv6/mld6.o
 .text          0x00000384        0x0 ./lwip/src/core/ipv6/nd6.o
 .text          0x00000384        0x0 ./lwip/src/netif/ethernet.o
 .text          0x00000384        0x0 ./lwip/src/netif/ethernetif.o
 .text          0x00000384        0x0 ./lwip/src/netif/lowpan6.o
 .text          0x00000384        0x0 ./lwip/src/netif/slipif.o
 .text          0x00000384        0x0 ./lwip/src/netif/ppp/auth.o
 .text          0x00000384        0x0 ./lwip/src/netif/ppp/ccp.o
 .text          0x00000384        0x0 ./lwip/src/netif/ppp/chap-md5.o
 .text          0x00000384        0x0 ./lwip/src/netif/ppp/chap-new.o
 .text          0x00000384        0x0 ./lwip/src/netif/ppp/chap_ms.o
 .text          0x00000384        0x0 ./lwip/src/netif/ppp/demand.o
 .text          0x00000384        0x0 ./lwip/src/netif/ppp/eap.o
 .text          0x00000384        0x0 ./lwip/src/netif/ppp/ecp.o
 .text          0x00000384        0x0 ./lwip/src/netif/ppp/eui64.o
 .text          0x00000384        0x0 ./lwip/src/netif/ppp/fsm.o
 .text          0x00000384        0x0 ./lwip/src/netif/ppp/ipcp.o
 .text          0x00000384        0x0 ./lwip/src/netif/ppp/ipv6cp.o
 .text          0x00000384        0x0 ./lwip/src/netif/ppp/lcp.o
 .text          0x00000384        0x0 ./lwip/src/netif/ppp/magic.o
 .text          0x00000384        0x0 ./lwip/src/netif/ppp/mppe.o
 .text          0x00000384        0x0 ./lwip/src/netif/ppp/multilink.o
 .text          0x00000384        0x0 ./lwip/src/netif/ppp/ppp.o
 .text          0x00000384        0x0 ./lwip/src/netif/ppp/pppapi.o
 .text          0x00000384        0x0 ./lwip/src/netif/ppp/pppcrypt.o
 .text          0x00000384        0x0 ./lwip/src/netif/ppp/pppoe.o
 .text          0x00000384        0x0 ./lwip/src/netif/ppp/pppol2tp.o
 .text          0x00000384        0x0 ./lwip/src/netif/ppp/pppos.o
 .text          0x00000384        0x0 ./lwip/src/netif/ppp/upap.o
 .text          0x00000384        0x0 ./lwip/src/netif/ppp/utils.o
 .text          0x00000384        0x0 ./lwip/src/netif/ppp/vj.o
 .text          0x00000384        0x0 ./lwip/src/netif/ppp/polarssl/arc4.o
 .text          0x00000384        0x0 ./lwip/src/netif/ppp/polarssl/des.o
 .text          0x00000384        0x0 ./lwip/src/netif/ppp/polarssl/md4.o
 .text          0x00000384        0x0 ./lwip/src/netif/ppp/polarssl/md5.o
 .text          0x00000384        0x0 ./lwip/src/netif/ppp/polarssl/sha1.o
 .text          0x00000384        0x0 C:/ti/simplelink_msp432e4_sdk_4_20_00_12/source\ti/devices/msp432e4/driverlib/lib/gcc/m4f/msp432e4_driverlib.a(emac.o)
 .text          0x00000384        0x0 C:/ti/simplelink_msp432e4_sdk_4_20_00_12/source\ti/devices/msp432e4/driverlib/lib/gcc/m4f/msp432e4_driverlib.a(flash.o)
 .text          0x00000384        0x0 C:/ti/simplelink_msp432e4_sdk_4_20_00_12/source\ti/devices/msp432e4/driverlib/lib/gcc/m4f/msp432e4_driverlib.a(gpio.o)
 .text          0x00000384        0x0 C:/ti/simplelink_msp432e4_sdk_4_20_00_12/source\ti/devices/msp432e4/driverlib/lib/gcc/m4f/msp432e4_driverlib.a(interrupt.o)
 .text          0x00000384        0x0 C:/ti/simplelink_msp432e4_sdk_4_20_00_12/source\ti/devices/msp432e4/driverlib/lib/gcc/m4f/msp432e4_driverlib.a(sw_crc.o)
 .text          0x00000384        0x0 C:/ti/simplelink_msp432e4_sdk_4_20_00_12/source\ti/devices/msp432e4/driverlib/lib/gcc/m4f/msp432e4_driverlib.a(sysctl.o)
 .text          0x00000384        0x0 C:/ti/simplelink_msp432e4_sdk_4_20_00_12/source\ti/devices/msp432e4/driverlib/lib/gcc/m4f/msp432e4_driverlib.a(systick.o)
 .text          0x00000384        0x0 C:/ti/simplelink_msp432e4_sdk_4_20_00_12/source\ti/devices/msp432e4/driverlib/lib/gcc/m4f/msp432e4_driverlib.a(cpu.o)
 .text          0x00000384       0xa0 c:/ti/gcc_arm_none_eabi_9_2_1/bin/../lib/gcc/arm-none-eabi/9.2.1/thumb/v7e-m+fp/hard\libgcc.a(_aeabi_ldivmod.o)
                0x00000384                __aeabi_ldivmod
 .text          0x00000424      0x2c4 c:/ti/gcc_arm_none_eabi_9_2_1/bin/../lib/gcc/arm-none-eabi/9.2.1/thumb/v7e-m+fp/hard\libgcc.a(_udivmoddi4.o)
                0x00000424                __udivmoddi4
 .text          0x000006e8        0x4 c:/ti/gcc_arm_none_eabi_9_2_1/bin/../lib/gcc/arm-none-eabi/9.2.1/thumb/v7e-m+fp/hard\libgcc.a(_dvmd_tls.o)
                0x000006e8                __aeabi_idiv0
                0x000006e8                __aeabi_ldiv0
 .text          0x000006ec        0x0 c:/ti/gcc_arm_none_eabi_9_2_1/bin/../lib/gcc/arm-none-eabi/9.2.1/../../../../arm-none-eabi/lib/thumb/v7e-m+fp/hard\libc_nano.a(lib_a-exit.o)
 .text          0x000006ec        0x0 c:/ti/gcc_arm_none_eabi_9_2_1/bin/../lib/gcc/arm-none-eabi/9.2.1/../../../../arm-none-eabi/lib/thumb/v7e-m+fp/hard\libc_nano.a(lib_a-impure.o)
 .text          0x000006ec        0x0 c:/ti/gcc_arm_none_eabi_9_2_1/bin/../lib/gcc/arm-none-eabi/9.2.1/../../../../arm-none-eabi/lib/thumb/v7e-m+fp/hard\libc_nano.a(lib_a-init.o)
 .text          0x000006ec        0x0 c:/ti/gcc_arm_none_eabi_9_2_1/bin/../lib/gcc/arm-none-eabi/9.2.1/../../../../arm-none-eabi/lib/thumb/v7e-m+fp/hard\libc_nano.a(lib_a-malloc.o)
 .text          0x000006ec        0x0 c:/ti/gcc_arm_none_eabi_9_2_1/bin/../lib/gcc/arm-none-eabi/9.2.1/../../../../arm-none-eabi/lib/thumb/v7e-m+fp/hard\libc_nano.a(lib_a-memcmp.o)
 .text          0x000006ec        0x0 c:/ti/gcc_arm_none_eabi_9_2_1/bin/../lib/gcc/arm-none-eabi/9.2.1/../../../../arm-none-eabi/lib/thumb/v7e-m+fp/hard\libc_nano.a(lib_a-memcpy-stub.o)
 .text          0x000006ec        0x0 c:/ti/gcc_arm_none_eabi_9_2_1/bin/../lib/gcc/arm-none-eabi/9.2.1/../../../../arm-none-eabi/lib/thumb/v7e-m+fp/hard\libc_nano.a(lib_a-memset.o)
 .text          0x000006ec        0x0 c:/ti/gcc_arm_none_eabi_9_2_1/bin/../lib/gcc/arm-none-eabi/9.2.1/../../../../arm-none-eabi/lib/thumb/v7e-m+fp/hard\libc_nano.a(lib_a-nano-freer.o)
 .text          0x000006ec        0x0 c:/ti/gcc_arm_none_eabi_9_2_1/bin/../lib/gcc/arm-none-eabi/9.2.1/../../../../arm-none-eabi/lib/thumb/v7e-m+fp/hard\libc_nano.a(lib_a-nano-mallocr.o)
 .text          0x000006ec        0x0 c:/ti/gcc_arm_none_eabi_9_2_1/bin/../lib/gcc/arm-none-eabi/9.2.1/../../../../arm-none-eabi/lib/thumb/v7e-m+fp/hard\libc_nano.a(lib_a-rand.o)
 .text          0x000006ec        0x0 c:/ti/gcc_arm_none_eabi_9_2_1/bin/../lib/gcc/arm-none-eabi/9.2.1/../../../../arm-none-eabi/lib/thumb/v7e-m+fp/hard\libc_nano.a(lib_a-sbrkr.o)
 .text          0x000006ec        0x0 c:/ti/gcc_arm_none_eabi_9_2_1/bin/../lib/gcc/arm-none-eabi/9.2.1/../../../../arm-none-eabi/lib/thumb/v7e-m+fp/hard\libc_nano.a(lib_a-strchr.o)
 .text          0x000006ec       0x14 c:/ti/gcc_arm_none_eabi_9_2_1/bin/../lib/gcc/arm-none-eabi/9.2.1/../../../../arm-none-eabi/lib/thumb/v7e-m+fp/hard\libc_nano.a(lib_a-strcmp.o)
                0x000006ec                strcmp
 .text          0x00000700       0x10 c:/ti/gcc_arm_none_eabi_9_2_1/bin/../lib/gcc/arm-none-eabi/9.2.1/../../../../arm-none-eabi/lib/thumb/v7e-m+fp/hard\libc_nano.a(lib_a-strlen.o)
                0x00000700                strlen
 .text          0x00000710        0x0 c:/ti/gcc_arm_none_eabi_9_2_1/bin/../lib/gcc/arm-none-eabi/9.2.1/../../../../arm-none-eabi/lib/thumb/v7e-m+fp/hard\libc_nano.a(lib_a-strncmp.o)
 .text          0x00000710        0x0 c:/ti/gcc_arm_none_eabi_9_2_1/bin/../lib/gcc/arm-none-eabi/9.2.1/../../../../arm-none-eabi/lib/thumb/v7e-m+fp/hard\libc_nano.a(lib_a-strstr.o)
 .text          0x00000710        0x0 c:/ti/gcc_arm_none_eabi_9_2_1/bin/../lib/gcc/arm-none-eabi/9.2.1/../../../../arm-none-eabi/lib/thumb/v7e-m+fp/hard\libc_nano.a(lib_a-mlock.o)
 .text          0x00000710        0x0 c:/ti/gcc_arm_none_eabi_9_2_1/bin/../lib/gcc/arm-none-eabi/9.2.1/../../../../arm-none-eabi/lib/thumb/v7e-m+fp/hard\libc_nano.a(lib_a-reent.o)
 .text          0x00000710        0x0 c:/ti/gcc_arm_none_eabi_9_2_1/bin/../lib/gcc/arm-none-eabi/9.2.1/../../../../arm-none-eabi/lib/thumb/v7e-m+fp/hard\libc_nano.a(lib_a-lock.o)
 .text          0x00000710        0x0 c:/ti/gcc_arm_none_eabi_9_2_1/bin/../lib/gcc/arm-none-eabi/9.2.1/../../../../arm-none-eabi/lib/thumb/v7e-m+fp/hard\libnosys.a(sbrk.o)
 .text          0x00000710        0x0 c:/ti/gcc_arm_none_eabi_9_2_1/bin/../lib/gcc/arm-none-eabi/9.2.1/../../../../arm-none-eabi/lib/thumb/v7e-m+fp/hard\libnosys.a(_exit.o)
 .text          0x00000710        0x0 c:/ti/gcc_arm_none_eabi_9_2_1/bin/../lib/gcc/arm-none-eabi/9.2.1/thumb/v7e-m+fp/hard/crtend.o
 .text          0x00000710        0x0 c:/ti/gcc_arm_none_eabi_9_2_1/bin/../lib/gcc/arm-none-eabi/9.2.1/thumb/v7e-m+fp/hard/crtn.o
 *(.text.*)
 .text.ReadThread
                0x00000710       0x18 ./RTE.o
                0x00000710                ReadThread
 .text.TIMER2A_IRQHandler
                0x00000728       0x40 ./enet_io.o
                0x00000728                TIMER2A_IRQHandler
 .text.DisplayIPAddress
                0x00000768       0x44 ./enet_io.o
                0x00000768                DisplayIPAddress
 .text.lwIPHostTimerHandler
                0x000007ac       0x74 ./enet_io.o
                0x000007ac                lwIPHostTimerHandler
 .text.thread1function
                0x00000820       0x64 ./enet_io.o
                0x00000820                thread1function
 .text.thread2function
                0x00000884       0x28 ./enet_io.o
                0x00000884                thread2function
 .text.thread3function
                0x000008ac       0x30 ./enet_io.o
                0x000008ac                thread3function
 .text.main     0x000008dc      0x15c ./enet_io.o
                0x000008dc                main
 .text.io_set_timer
                0x00000a38       0x70 ./io.o
 .text.io_init  0x00000aa8       0x9c ./io.o
                0x00000aa8                io_init
 .text.fs_open  0x00000b44      0x130 ./io_fs.o
                0x00000b44                fs_open
 .text.fs_close
                0x00000c74       0x16 ./io_fs.o
                0x00000c74                fs_close
 .text.fs_bytes_left
                0x00000c8a       0x1e ./io_fs.o
                0x00000c8a                fs_bytes_left
 .text.PinoutSet
                0x00000ca8      0x270 ./pinout.o
                0x00000ca8                PinoutSet
 .text.SystemInit
                0x00000f18       0x30 ./system_msp432e401y.o
                0x00000f18                SystemInit
 .text.UARTStdioConfig
                0x00000f48       0x98 ./uartstdio.o
                0x00000f48                UARTStdioConfig
 .text.UARTwrite
                0x00000fe0       0x68 ./uartstdio.o
                0x00000fe0                UARTwrite
 .text.UARTvprintf
                0x00001048      0x3f0 ./uartstdio.o
                0x00001048                UARTvprintf
 .text.UARTprintf
                0x00001438       0x24 ./uartstdio.o
                0x00001438                UARTprintf
 .text.ustrncpy
                0x0000145c       0x6a ./ustdlib.o
                0x0000145c                ustrncpy
 *fill*         0x000014c6        0x2 
 .text.uvsnprintf
                0x000014c8      0x508 ./ustdlib.o
                0x000014c8                uvsnprintf
 .text.usprintf
                0x000019d0       0x30 ./ustdlib.o
                0x000019d0                usprintf
 .text.ustrncmp
                0x00001a00       0x6a ./ustdlib.o
                0x00001a00                ustrncmp
 .text.SquadRTOS_vListInit
                0x00001a6a       0x40 ./Kernal/kernal/List.o
                0x00001a6a                SquadRTOS_vListInit
 .text.SquadRTOS_vListInsertEnd
                0x00001aaa       0x52 ./Kernal/kernal/List.o
                0x00001aaa                SquadRTOS_vListInsertEnd
 .text.SquadRTOS_vListRemove
                0x00001afc       0x50 ./Kernal/kernal/List.o
                0x00001afc                SquadRTOS_vListRemove
 .text.SquadRTOS_vListInsert
                0x00001b4c       0x6a ./Kernal/kernal/List.o
                0x00001b4c                SquadRTOS_vListInsert
 .text.SquadRTOS_vCreateMutex
                0x00001bb6       0x22 ./Kernal/kernal/Mutex.o
                0x00001bb6                SquadRTOS_vCreateMutex
 .text.SquadRTOS_vTakeMutex
                0x00001bd8       0xa4 ./Kernal/kernal/Mutex.o
                0x00001bd8                SquadRTOS_vTakeMutex
 .text.SquadRTOS_vReleaseMutex
                0x00001c7c       0x3c ./Kernal/kernal/Mutex.o
                0x00001c7c                SquadRTOS_vReleaseMutex
 .text.SquadRTOS_vMakeTimer
                0x00001cb8      0x154 ./Kernal/kernal/PeridicTask.o
                0x00001cb8                SquadRTOS_vMakeTimer
 .text.SquadRTOS_vDeleteTimer
                0x00001e0c       0x40 ./Kernal/kernal/PeridicTask.o
                0x00001e0c                SquadRTOS_vDeleteTimer
 .text.SquadRTOS_vStart
                0x00001e4c       0x20 ./Kernal/kernal/PeridicTask.o
                0x00001e4c                SquadRTOS_vStart
 .text.SquadRTOS_vEnd
                0x00001e6c       0x20 ./Kernal/kernal/PeridicTask.o
                0x00001e6c                SquadRTOS_vEnd
 .text.SquadRTOS_ChangePeriod
                0x00001e8c       0x22 ./Kernal/kernal/PeridicTask.o
                0x00001e8c                SquadRTOS_ChangePeriod
 *fill*         0x00001eae        0x2 
 .text.SquadRTOS_CheckPerTasks
                0x00001eb0      0x120 ./Kernal/kernal/PeridicTask.o
                0x00001eb0                SquadRTOS_CheckPerTasks
 .text.__NVIC_SetPriorityGrouping
                0x00001fd0       0x48 ./Kernal/kernal/SquadRTOS.o
 .text.__NVIC_EnableIRQ
                0x00002018       0x3c ./Kernal/kernal/SquadRTOS.o
 .text.__NVIC_SetPriority
                0x00002054       0x54 ./Kernal/kernal/SquadRTOS.o
 .text.vIdleThreadFunction
                0x000020a8        0x6 ./Kernal/kernal/SquadRTOS.o
 *fill*         0x000020ae        0x2 
 .text.SquadRTOS_vinit
                0x000020b0       0xe4 ./Kernal/kernal/SquadRTOS.o
                0x000020b0                SquadRTOS_vinit
 .text.SquadRTOS_vschedulerStart
                0x00002194       0x7c ./Kernal/kernal/SquadRTOS.o
                0x00002194                SquadRTOS_vschedulerStart
 .text.SquadRTOS_SVC_vHandler_main
                0x00002210      0x236 ./Kernal/kernal/SquadRTOS.o
                0x00002210                SquadRTOS_SVC_vHandler_main
 *fill*         0x00002446        0x2 
 .text.SquadRTOS_SysTick_Handler
                0x00002448       0x38 ./Kernal/kernal/SquadRTOS.o
                0x00002448                SquadRTOS_SysTick_Handler
 .text.checkWaitingThreads
                0x00002480       0x42 ./Kernal/kernal/mailBox.o
 .text.SquadRTOS_vMailboxCreate
                0x000024c2       0x5a ./Kernal/kernal/mailBox.o
                0x000024c2                SquadRTOS_vMailboxCreate
 .text.SquadRTOS_u32MailboxWrite
                0x0000251c       0xb0 ./Kernal/kernal/mailBox.o
                0x0000251c                SquadRTOS_u32MailboxWrite
 .text.SquadRTOS_u32MailboxRead
                0x000025cc       0xac ./Kernal/kernal/mailBox.o
                0x000025cc                SquadRTOS_u32MailboxRead
 .text.pvCreateStaticQueue
                0x00002678       0x3e ./Kernal/kernal/queue.o
                0x00002678                pvCreateStaticQueue
 .text.vQueueStaticPush
                0x000026b6       0x68 ./Kernal/kernal/queue.o
                0x000026b6                vQueueStaticPush
 .text.pvQueueStaticDeque
                0x0000271e       0x68 ./Kernal/kernal/queue.o
                0x0000271e                pvQueueStaticDeque
 .text.bQueueIsEmpty
                0x00002786       0x30 ./Kernal/kernal/queue.o
                0x00002786                bQueueIsEmpty
 .text.vQueueReset
                0x000027b6       0x22 ./Kernal/kernal/queue.o
                0x000027b6                vQueueReset
 .text.SquadRTOS_vThreadAddToReadyList
                0x000027d8       0x74 ./Kernal/kernal/thread.o
                0x000027d8                SquadRTOS_vThreadAddToReadyList
 .text.SquadRTOS_vThreadCreate
                0x0000284c       0xa4 ./Kernal/kernal/thread.o
                0x0000284c                SquadRTOS_vThreadCreate
 .text.SquadRTOS_ThreadGetRunning
                0x000028f0       0x18 ./Kernal/kernal/thread.o
                0x000028f0                SquadRTOS_ThreadGetRunning
 .text.SquadRTOS_vthreadSwitchRunning
                0x00002908       0x8c ./Kernal/kernal/thread.o
                0x00002908                SquadRTOS_vthreadSwitchRunning
 .text.SquadRTOS_vthreadInitLists
                0x00002994       0x4c ./Kernal/kernal/thread.o
                0x00002994                SquadRTOS_vthreadInitLists
 .text.vTaskDelay
                0x000029e0       0x5c ./Kernal/kernal/thread.o
                0x000029e0                vTaskDelay
 .text.SquadRTOS_vCheckWaitingList
                0x00002a3c       0x64 ./Kernal/kernal/thread.o
                0x00002a3c                SquadRTOS_vCheckWaitingList
 .text.SquadRTOS_vTaskTimeOut
                0x00002aa0       0x28 ./Kernal/kernal/thread.o
                0x00002aa0                SquadRTOS_vTaskTimeOut
 .text.SquadRTOS_vCheckTimeOut
                0x00002ac8       0x44 ./Kernal/kernal/thread.o
                0x00002ac8                SquadRTOS_vCheckTimeOut
 .text.SquadRTOS_vthreadDestroy
                0x00002b0c       0x2c ./Kernal/kernal/thread.o
                0x00002b0c                SquadRTOS_vthreadDestroy
 .text.SquadRTOS_vTaskResume
                0x00002b38       0x38 ./Kernal/kernal/thread.o
                0x00002b38                SquadRTOS_vTaskResume
 .text.SquadRTOS_vChangePriority
                0x00002b70       0x44 ./Kernal/kernal/thread.o
                0x00002b70                SquadRTOS_vChangePriority
 .text.SquadRTOS_vRecieve
                0x00002bb4       0x3c ./Kernal/kernal/thread.o
                0x00002bb4                SquadRTOS_vRecieve
 .text.Reset_Handler
                0x00002bf0       0x44 ./gcc/startup_msp432e401y_gcc.o
                0x00002bf0                Reset_Handler
 .text.Default_Handler
                0x00002c34        0xe ./gcc/startup_msp432e401y_gcc.o
                0x00002c34                GPIOP3_IRQHandler
                0x00002c34                DebugMon_Handler
                0x00002c34                I2C0_IRQHandler
                0x00002c34                GPIOQ0_IRQHandler
                0x00002c34                HardFault_Handler
                0x00002c34                DES0_IRQHandler
                0x00002c34                EPI0_IRQHandler
                0x00002c34                GPIOE_IRQHandler
                0x00002c34                GPIOB_IRQHandler
                0x00002c34                GPIOA_IRQHandler
                0x00002c34                GPIOL_IRQHandler
                0x00002c34                NMI_Handler
                0x00002c34                I2C1_IRQHandler
                0x00002c34                AES0_IRQHandler
                0x00002c34                UART1_IRQHandler
                0x00002c34                CAN1_IRQHandler
                0x00002c34                GPIOQ4_IRQHandler
                0x00002c34                TIMER4B_IRQHandler
                0x00002c34                TIMER3A_IRQHandler
                0x00002c34                TIMER4A_IRQHandler
                0x00002c34                GPIOK_IRQHandler
                0x00002c34                UART0_IRQHandler
                0x00002c34                SSI0_IRQHandler
                0x00002c34                PWM0_0_IRQHandler
                0x00002c34                WATCHDOG_IRQHandler
                0x00002c34                GPIOQ7_IRQHandler
                0x00002c34                UsageFault_Handler
                0x00002c34                I2C7_IRQHandler
                0x00002c34                GPIOQ2_IRQHandler
                0x00002c34                GPIOP5_IRQHandler
                0x00002c34                GPIOM_IRQHandler
                0x00002c34                GPIOP2_IRQHandler
                0x00002c34                TIMER2B_IRQHandler
                0x00002c34                I2C5_IRQHandler
                0x00002c34                I2C4_IRQHandler
                0x00002c34                TIMER6A_IRQHandler
                0x00002c34                SSI1_IRQHandler
                0x00002c34                GPIOF_IRQHandler
                0x00002c34                I2C2_IRQHandler
                0x00002c34                GPIOQ1_IRQHandler
                0x00002c34                ADC1SS0_IRQHandler
                0x00002c34                GPIOP7_IRQHandler
                0x00002c34                TIMER0B_IRQHandler
                0x00002c34                TIMER3B_IRQHandler
                0x00002c34                UART5_IRQHandler
                0x00002c34                GPIOD_IRQHandler
                0x00002c34                TIMER0A_IRQHandler
                0x00002c34                COMP0_IRQHandler
                0x00002c34                PWM0_2_IRQHandler
                0x00002c34                GPIOC_IRQHandler
                0x00002c34                SHA0_IRQHandler
                0x00002c34                UDMA_IRQHandler
                0x00002c34                UART2_IRQHandler
                0x00002c34                UART4_IRQHandler
                0x00002c34                GPIOP4_IRQHandler
                0x00002c34                I2C6_IRQHandler
                0x00002c34                Default_Handler
                0x00002c34                COMP2_IRQHandler
                0x00002c34                I2C9_IRQHandler
                0x00002c34                ADC0SS3_IRQHandler
                0x00002c34                QEI0_IRQHandler
                0x00002c34                GPIOG_IRQHandler
                0x00002c34                GPIOH_IRQHandler
                0x00002c34                ADC1SS2_IRQHandler
                0x00002c34                TIMER5A_IRQHandler
                0x00002c34                USB0_IRQHandler
                0x00002c34                I2C3_IRQHandler
                0x00002c34                GPIOQ3_IRQHandler
                0x00002c34                MemManage_Handler
                0x00002c34                ADC0SS2_IRQHandler
                0x00002c34                SYSEXC_IRQHandler
                0x00002c34                UDMAERR_IRQHandler
                0x00002c34                GPIOQ5_IRQHandler
                0x00002c34                ADC1SS1_IRQHandler
                0x00002c34                GPIOJ_IRQHandler
                0x00002c34                ADC0SS0_IRQHandler
                0x00002c34                ADC0SS1_IRQHandler
                0x00002c34                CAN0_IRQHandler
                0x00002c34                TIMER6B_IRQHandler
                0x00002c34                TIMER5B_IRQHandler
                0x00002c34                GPIOQ6_IRQHandler
                0x00002c34                GPIOP6_IRQHandler
                0x00002c34                GPIOP0_IRQHandler
                0x00002c34                PWM0_3_IRQHandler
                0x00002c34                SYSCTL_IRQHandler
                0x00002c34                PWM0_1_IRQHandler
                0x00002c34                SSI2_IRQHandler
                0x00002c34                UART7_IRQHandler
                0x00002c34                HIBERNATE_IRQHandler
                0x00002c34                UART6_IRQHandler
                0x00002c34                PWM0_FAULT_IRQHandler
                0x00002c34                TAMPER0_IRQHandler
                0x00002c34                TIMER7B_IRQHandler
                0x00002c34                TIMER7A_IRQHandler
                0x00002c34                TIMER1A_IRQHandler
                0x00002c34                FLASH_IRQHandler
                0x00002c34                GPION_IRQHandler
                0x00002c34                BusFault_Handler
                0x00002c34                SSI3_IRQHandler
                0x00002c34                UART3_IRQHandler
                0x00002c34                I2C8_IRQHandler
                0x00002c34                COMP1_IRQHandler
                0x00002c34                TIMER1B_IRQHandler
                0x00002c34                GPIOP1_IRQHandler
                0x00002c34                ADC1SS3_IRQHandler
 *fill*         0x00002c42        0x2 
 .text.InitDMADescriptors
                0x00002c44      0x200 ./lwip/ports/msp432e4/netif/msp432e4if.o
                0x00002c44                InitDMADescriptors
 .text.msp432e4if_hwinit
                0x00002e44       0xe4 ./lwip/ports/msp432e4/netif/msp432e4if.o
 .text.msp432e4if_check_pbuf
                0x00002f28       0x7c ./lwip/ports/msp432e4/netif/msp432e4if.o
 .text.msp432e4if_transmit
                0x00002fa4      0x1d8 ./lwip/ports/msp432e4/netif/msp432e4if.o
 .text.msp432e4if_process_transmit
                0x0000317c       0xcc ./lwip/ports/msp432e4/netif/msp432e4if.o
 .text.msp432e4if_receive
                0x00003248      0x30c ./lwip/ports/msp432e4/netif/msp432e4if.o
 .text.msp432e4if_init
                0x00003554       0x50 ./lwip/ports/msp432e4/netif/msp432e4if.o
                0x00003554                msp432e4if_init
 .text.msp432e4if_process_phy_interrupt
                0x000035a4       0xb4 ./lwip/ports/msp432e4/netif/msp432e4if.o
                0x000035a4                msp432e4if_process_phy_interrupt
 .text.msp432e4if_interrupt
                0x00003658       0x74 ./lwip/ports/msp432e4/netif/msp432e4if.o
                0x00003658                msp432e4if_interrupt
 .text.sys_now  0x000036cc       0x18 ./lwip/ports/msp432e4/sys_arch.o
                0x000036cc                sys_now
 .text.sys_arch_protect
                0x000036e4       0x18 ./lwip/ports/msp432e4/sys_arch.o
                0x000036e4                sys_arch_protect
 .text.sys_arch_unprotect
                0x000036fc       0x2c ./lwip/ports/msp432e4/sys_arch.o
                0x000036fc                sys_arch_unprotect
 .text.LocatorReceive
                0x00003728       0xdc ./lwip/ports/msp432e4/utils/locator.o
 .text.LocatorInit
                0x00003804       0x88 ./lwip/ports/msp432e4/utils/locator.o
                0x00003804                LocatorInit
 .text.LocatorMACAddrSet
                0x0000388c       0x48 ./lwip/ports/msp432e4/utils/locator.o
                0x0000388c                LocatorMACAddrSet
 .text.LocatorAppTitleSet
                0x000038d4       0x5c ./lwip/ports/msp432e4/utils/locator.o
                0x000038d4                LocatorAppTitleSet
 .text.lwIPLinkDetect
                0x00003930       0xb0 ./lwip/ports/msp432e4/utils/lwiplib.o
 .text.lwIPServiceTimers
                0x000039e0      0x108 ./lwip/ports/msp432e4/utils/lwiplib.o
 .text.lwIPPrivateInit
                0x00003ae8       0xe8 ./lwip/ports/msp432e4/utils/lwiplib.o
 .text.lwIPInit
                0x00003bd0      0x108 ./lwip/ports/msp432e4/utils/lwiplib.o
                0x00003bd0                lwIPInit
 .text.lwIPTimer
                0x00003cd8       0x38 ./lwip/ports/msp432e4/utils/lwiplib.o
                0x00003cd8                lwIPTimer
 .text.EMAC0_IRQHandler
                0x00003d10       0xa4 ./lwip/ports/msp432e4/utils/lwiplib.o
                0x00003d10                EMAC0_IRQHandler
 .text.lwIPLocalIPAddrGet
                0x00003db4       0x28 ./lwip/ports/msp432e4/utils/lwiplib.o
                0x00003db4                lwIPLocalIPAddrGet
 .text.http_ssi_state_alloc
                0x00003ddc       0x28 ./lwip/src/apps/httpd/httpd.o
 .text.http_ssi_state_free
                0x00003e04       0x1c ./lwip/src/apps/httpd/httpd.o
 .text.http_state_init
                0x00003e20       0x22 ./lwip/src/apps/httpd/httpd.o
 .text.http_state_alloc
                0x00003e42       0x24 ./lwip/src/apps/httpd/httpd.o
 .text.http_state_eof
                0x00003e66       0x58 ./lwip/src/apps/httpd/httpd.o
 .text.http_state_free
                0x00003ebe       0x22 ./lwip/src/apps/httpd/httpd.o
 .text.http_write
                0x00003ee0       0xb2 ./lwip/src/apps/httpd/httpd.o
 *fill*         0x00003f92        0x2 
 .text.http_close_or_abort_conn
                0x00003f94       0x80 ./lwip/src/apps/httpd/httpd.o
 .text.http_close_conn
                0x00004014       0x1e ./lwip/src/apps/httpd/httpd.o
 .text.http_eof
                0x00004032       0x1a ./lwip/src/apps/httpd/httpd.o
 .text.extract_uri_parameters
                0x0000404c       0xbc ./lwip/src/apps/httpd/httpd.o
 .text.get_tag_insert
                0x00004108      0x12c ./lwip/src/apps/httpd/httpd.o
 .text.get_http_headers
                0x00004234      0x224 ./lwip/src/apps/httpd/httpd.o
 .text.http_send_headers
                0x00004458      0x190 ./lwip/src/apps/httpd/httpd.o
 .text.http_check_eof
                0x000045e8       0x46 ./lwip/src/apps/httpd/httpd.o
 .text.http_send_data_nonssi
                0x0000462e       0x76 ./lwip/src/apps/httpd/httpd.o
 .text.http_send_data_ssi
                0x000046a4      0x53c ./lwip/src/apps/httpd/httpd.o
 .text.http_send
                0x00004be0       0xac ./lwip/src/apps/httpd/httpd.o
 .text.http_get_404_file
                0x00004c8c       0x8c ./lwip/src/apps/httpd/httpd.o
 .text.http_parse_request
                0x00004d18      0x198 ./lwip/src/apps/httpd/httpd.o
 .text.http_find_file
                0x00004eb0      0x2b0 ./lwip/src/apps/httpd/httpd.o
 .text.http_init_file
                0x00005160      0x110 ./lwip/src/apps/httpd/httpd.o
 .text.http_err
                0x00005270       0x24 ./lwip/src/apps/httpd/httpd.o
 .text.http_sent
                0x00005294       0x36 ./lwip/src/apps/httpd/httpd.o
 .text.http_poll
                0x000052ca       0x76 ./lwip/src/apps/httpd/httpd.o
 .text.http_recv
                0x00005340       0xca ./lwip/src/apps/httpd/httpd.o
 *fill*         0x0000540a        0x2 
 .text.http_accept
                0x0000540c       0x88 ./lwip/src/apps/httpd/httpd.o
 .text.httpd_init
                0x00005494       0x48 ./lwip/src/apps/httpd/httpd.o
                0x00005494                httpd_init
 .text.lwip_htons
                0x000054dc       0x1c ./lwip/src/core/def.o
                0x000054dc                lwip_htons
 .text.lwip_htonl
                0x000054f8       0x32 ./lwip/src/core/def.o
                0x000054f8                lwip_htonl
 .text.lwip_strnstr
                0x0000552a       0x6c ./lwip/src/core/def.o
                0x0000552a                lwip_strnstr
 .text.lwip_stricmp
                0x00005596       0x68 ./lwip/src/core/def.o
                0x00005596                lwip_stricmp
 *fill*         0x000055fe        0x2 
 .text.lwip_itoa
                0x00005600       0x9c ./lwip/src/core/def.o
                0x00005600                lwip_itoa
 .text.dns_init
                0x0000569c        0xe ./lwip/src/core/dns.o
                0x0000569c                dns_init
 *fill*         0x000056aa        0x2 
 .text.dns_setserver
                0x000056ac       0x48 ./lwip/src/core/dns.o
                0x000056ac                dns_setserver
 .text.dns_tmr  0x000056f4        0xc ./lwip/src/core/dns.o
                0x000056f4                dns_tmr
 .text.dns_send
                0x00005700      0x19c ./lwip/src/core/dns.o
 .text.dns_call_found
                0x0000589c      0x180 ./lwip/src/core/dns.o
 .text.dns_create_txid
                0x00005a1c       0x60 ./lwip/src/core/dns.o
 .text.dns_check_entry
                0x00005a7c      0x128 ./lwip/src/core/dns.o
 .text.dns_check_entries
                0x00005ba4       0x2a ./lwip/src/core/dns.o
 .text.lwip_standard_chksum
                0x00005bce       0xba ./lwip/src/core/inet_chksum.o
                0x00005bce                lwip_standard_chksum
 .text.inet_chksum_pbuf
                0x00005c88       0x94 ./lwip/src/core/inet_chksum.o
                0x00005c88                inet_chksum_pbuf
 .text.lwip_init
                0x00005d1c       0x32 ./lwip/src/core/init.o
                0x00005d1c                lwip_init
 *fill*         0x00005d4e        0x2 
 .text.plug_holes
                0x00005d50       0xc0 ./lwip/src/core/mem.o
 .text.mem_init
                0x00005e10       0x88 ./lwip/src/core/mem.o
                0x00005e10                mem_init
 .text.mem_free
                0x00005e98       0xac ./lwip/src/core/mem.o
                0x00005e98                mem_free
 .text.mem_trim
                0x00005f44      0x1cc ./lwip/src/core/mem.o
                0x00005f44                mem_trim
 .text.mem_malloc
                0x00006110      0x1d8 ./lwip/src/core/mem.o
                0x00006110                mem_malloc
 .text.memp_init_pool
                0x000062e8       0x68 ./lwip/src/core/memp.o
                0x000062e8                memp_init_pool
 .text.memp_init
                0x00006350       0x50 ./lwip/src/core/memp.o
                0x00006350                memp_init
 .text.do_memp_malloc_pool
                0x000063a0       0x7a ./lwip/src/core/memp.o
 *fill*         0x0000641a        0x2 
 .text.memp_malloc
                0x0000641c       0x34 ./lwip/src/core/memp.o
                0x0000641c                memp_malloc
 .text.do_memp_free_pool
                0x00006450       0x44 ./lwip/src/core/memp.o
 .text.memp_free
                0x00006494       0x3c ./lwip/src/core/memp.o
                0x00006494                memp_free
 .text.netif_init
                0x000064d0        0xe ./lwip/src/core/netif.o
                0x000064d0                netif_init
 *fill*         0x000064de        0x2 
 .text.netif_add
                0x000064e0       0x98 ./lwip/src/core/netif.o
                0x000064e0                netif_add
 .text.netif_set_addr
                0x00006578       0x58 ./lwip/src/core/netif.o
                0x00006578                netif_set_addr
 .text.netif_set_ipaddr
                0x000065d0       0x70 ./lwip/src/core/netif.o
                0x000065d0                netif_set_ipaddr
 .text.netif_set_gw
                0x00006640       0x28 ./lwip/src/core/netif.o
                0x00006640                netif_set_gw
 .text.netif_set_netmask
                0x00006668       0x28 ./lwip/src/core/netif.o
                0x00006668                netif_set_netmask
 .text.netif_set_default
                0x00006690       0x20 ./lwip/src/core/netif.o
                0x00006690                netif_set_default
 .text.netif_set_up
                0x000066b0       0x46 ./lwip/src/core/netif.o
                0x000066b0                netif_set_up
 .text.netif_issue_reports
                0x000066f6       0x42 ./lwip/src/core/netif.o
 .text.netif_set_link_up
                0x00006738       0x52 ./lwip/src/core/netif.o
                0x00006738                netif_set_link_up
 .text.netif_set_link_down
                0x0000678a       0x34 ./lwip/src/core/netif.o
                0x0000678a                netif_set_link_down
 *fill*         0x000067be        0x2 
 .text.pbuf_pool_is_empty
                0x000067c0       0x28 ./lwip/src/core/pbuf.o
 .text.pbuf_alloc
                0x000067e8      0x21c ./lwip/src/core/pbuf.o
                0x000067e8                pbuf_alloc
 .text.pbuf_realloc
                0x00006a04       0xc6 ./lwip/src/core/pbuf.o
                0x00006a04                pbuf_realloc
 .text.pbuf_header_impl
                0x00006aca      0x104 ./lwip/src/core/pbuf.o
 .text.pbuf_header
                0x00006bce       0x24 ./lwip/src/core/pbuf.o
                0x00006bce                pbuf_header
 .text.pbuf_header_force
                0x00006bf2       0x24 ./lwip/src/core/pbuf.o
                0x00006bf2                pbuf_header_force
 .text.pbuf_free
                0x00006c16       0xae ./lwip/src/core/pbuf.o
                0x00006c16                pbuf_free
 .text.pbuf_clen
                0x00006cc4       0x2e ./lwip/src/core/pbuf.o
                0x00006cc4                pbuf_clen
 .text.pbuf_ref
                0x00006cf2       0x32 ./lwip/src/core/pbuf.o
                0x00006cf2                pbuf_ref
 .text.pbuf_cat
                0x00006d24       0x5e ./lwip/src/core/pbuf.o
                0x00006d24                pbuf_cat
 .text.pbuf_chain
                0x00006d82       0x20 ./lwip/src/core/pbuf.o
                0x00006d82                pbuf_chain
 .text.pbuf_copy
                0x00006da2      0x110 ./lwip/src/core/pbuf.o
                0x00006da2                pbuf_copy
 .text.pbuf_copy_partial
                0x00006eb2       0xc8 ./lwip/src/core/pbuf.o
                0x00006eb2                pbuf_copy_partial
 .text.pbuf_skip_const
                0x00006f7a       0x52 ./lwip/src/core/pbuf.o
 .text.pbuf_skip
                0x00006fcc       0x26 ./lwip/src/core/pbuf.o
                0x00006fcc                pbuf_skip
 .text.pbuf_take
                0x00006ff2       0xac ./lwip/src/core/pbuf.o
                0x00006ff2                pbuf_take
 .text.pbuf_take_at
                0x0000709e       0xa4 ./lwip/src/core/pbuf.o
                0x0000709e                pbuf_take_at
 .text.pbuf_put_at
                0x00007142       0x44 ./lwip/src/core/pbuf.o
                0x00007142                pbuf_put_at
 .text.stats_init
                0x00007186        0xe ./lwip/src/core/stats.o
                0x00007186                stats_init
 .text.tcp_init
                0x00007194        0xe ./lwip/src/core/tcp.o
                0x00007194                tcp_init
 *fill*         0x000071a2        0x2 
 .text.tcp_tmr  0x000071a4       0x2c ./lwip/src/core/tcp.o
                0x000071a4                tcp_tmr
 .text.tcp_remove_listener
                0x000071d0       0x3a ./lwip/src/core/tcp.o
 *fill*         0x0000720a        0x2 
 .text.tcp_listen_closed
                0x0000720c       0x3c ./lwip/src/core/tcp.o
 .text.tcp_close_shutdown
                0x00007248      0x1ac ./lwip/src/core/tcp.o
 .text.tcp_close_shutdown_fin
                0x000073f4       0xae ./lwip/src/core/tcp.o
 .text.tcp_close
                0x000074a2       0x30 ./lwip/src/core/tcp.o
                0x000074a2                tcp_close
 *fill*         0x000074d2        0x2 
 .text.tcp_abandon
                0x000074d4      0x140 ./lwip/src/core/tcp.o
                0x000074d4                tcp_abandon
 .text.tcp_abort
                0x00007614       0x18 ./lwip/src/core/tcp.o
                0x00007614                tcp_abort
 .text.tcp_bind
                0x0000762c      0x10c ./lwip/src/core/tcp.o
                0x0000762c                tcp_bind
 .text.tcp_accept_null
                0x00007738       0x20 ./lwip/src/core/tcp.o
 .text.tcp_listen_with_backlog
                0x00007758       0x22 ./lwip/src/core/tcp.o
                0x00007758                tcp_listen_with_backlog
 *fill*         0x0000777a        0x2 
 .text.tcp_listen_with_backlog_and_err
                0x0000777c      0x118 ./lwip/src/core/tcp.o
                0x0000777c                tcp_listen_with_backlog_and_err
 .text.tcp_update_rcv_ann_wnd
                0x00007894       0x7c ./lwip/src/core/tcp.o
                0x00007894                tcp_update_rcv_ann_wnd
 .text.tcp_recved
                0x00007910       0x7c ./lwip/src/core/tcp.o
                0x00007910                tcp_recved
 .text.tcp_new_port
                0x0000798c       0x88 ./lwip/src/core/tcp.o
 .text.tcp_slowtmr
                0x00007a14      0x490 ./lwip/src/core/tcp.o
                0x00007a14                tcp_slowtmr
 .text.tcp_fasttmr
                0x00007ea4       0xc8 ./lwip/src/core/tcp.o
                0x00007ea4                tcp_fasttmr
 .text.tcp_process_refused_data
                0x00007f6c       0xd2 ./lwip/src/core/tcp.o
                0x00007f6c                tcp_process_refused_data
 .text.tcp_segs_free
                0x0000803e       0x2a ./lwip/src/core/tcp.o
                0x0000803e                tcp_segs_free
 .text.tcp_seg_free
                0x00008068       0x30 ./lwip/src/core/tcp.o
                0x00008068                tcp_seg_free
 .text.tcp_setprio
                0x00008098       0x1e ./lwip/src/core/tcp.o
                0x00008098                tcp_setprio
 .text.tcp_seg_copy
                0x000080b6       0x38 ./lwip/src/core/tcp.o
                0x000080b6                tcp_seg_copy
 .text.tcp_recv_null
                0x000080ee       0x44 ./lwip/src/core/tcp.o
                0x000080ee                tcp_recv_null
 *fill*         0x00008132        0x2 
 .text.tcp_kill_prio
                0x00008134       0x84 ./lwip/src/core/tcp.o
 .text.tcp_kill_state
                0x000081b8       0x70 ./lwip/src/core/tcp.o
 .text.tcp_kill_timewait
                0x00008228       0x60 ./lwip/src/core/tcp.o
 .text.tcp_alloc
                0x00008288      0x158 ./lwip/src/core/tcp.o
                0x00008288                tcp_alloc
 .text.tcp_new_ip_type
                0x000083e0       0x1c ./lwip/src/core/tcp.o
                0x000083e0                tcp_new_ip_type
 .text.tcp_arg  0x000083fc       0x22 ./lwip/src/core/tcp.o
                0x000083fc                tcp_arg
 .text.tcp_recv
                0x0000841e       0x24 ./lwip/src/core/tcp.o
                0x0000841e                tcp_recv
 .text.tcp_sent
                0x00008442       0x22 ./lwip/src/core/tcp.o
                0x00008442                tcp_sent
 .text.tcp_err  0x00008464       0x24 ./lwip/src/core/tcp.o
                0x00008464                tcp_err
 .text.tcp_accept
                0x00008488       0x2e ./lwip/src/core/tcp.o
                0x00008488                tcp_accept
 .text.tcp_poll
                0x000084b6       0x28 ./lwip/src/core/tcp.o
                0x000084b6                tcp_poll
 .text.tcp_pcb_purge
                0x000084de       0x82 ./lwip/src/core/tcp.o
                0x000084de                tcp_pcb_purge
 .text.tcp_pcb_remove
                0x00008560       0x9e ./lwip/src/core/tcp.o
                0x00008560                tcp_pcb_remove
 *fill*         0x000085fe        0x2 
 .text.tcp_next_iss
                0x00008600       0x30 ./lwip/src/core/tcp.o
                0x00008600                tcp_next_iss
 .text.tcp_eff_send_mss_impl
                0x00008630       0x48 ./lwip/src/core/tcp.o
                0x00008630                tcp_eff_send_mss_impl
 .text.tcp_netif_ip_addr_changed_pcblist
                0x00008678       0x52 ./lwip/src/core/tcp.o
 *fill*         0x000086ca        0x2 
 .text.tcp_netif_ip_addr_changed
                0x000086cc       0x80 ./lwip/src/core/tcp.o
                0x000086cc                tcp_netif_ip_addr_changed
 .text.tcp_input
                0x0000874c      0x744 ./lwip/src/core/tcp_in.o
                0x0000874c                tcp_input
 .text.tcp_listen_input
                0x00008e90      0x1d4 ./lwip/src/core/tcp_in.o
 .text.tcp_timewait_input
                0x00009064       0xd0 ./lwip/src/core/tcp_in.o
 .text.tcp_process
                0x00009134      0x6f8 ./lwip/src/core/tcp_in.o
 .text.tcp_oos_insert_segment
                0x0000982c       0xec ./lwip/src/core/tcp_in.o
 .text.tcp_receive
                0x00009918      0xdd4 ./lwip/src/core/tcp_in.o
 .text.tcp_getoptbyte
                0x0000a6ec       0x78 ./lwip/src/core/tcp_in.o
 .text.tcp_parseopt
                0x0000a764       0xcc ./lwip/src/core/tcp_in.o
 .text.tcp_trigger_input_pcb_close
                0x0000a830       0x20 ./lwip/src/core/tcp_in.o
                0x0000a830                tcp_trigger_input_pcb_close
 .text.tcp_output_alloc_header
                0x0000a850       0xd0 ./lwip/src/core/tcp_out.o
 .text.tcp_send_fin
                0x0000a920       0x7e ./lwip/src/core/tcp_out.o
                0x0000a920                tcp_send_fin
 *fill*         0x0000a99e        0x2 
 .text.tcp_create_segment
                0x0000a9a0      0x100 ./lwip/src/core/tcp_out.o
 .text.tcp_pbuf_prealloc
                0x0000aaa0       0xa2 ./lwip/src/core/tcp_out.o
 *fill*         0x0000ab42        0x2 
 .text.tcp_write_checks
                0x0000ab44       0xc4 ./lwip/src/core/tcp_out.o
 .text.tcp_write
                0x0000ac08      0x54c ./lwip/src/core/tcp_out.o
                0x0000ac08                tcp_write
 .text.tcp_enqueue_flags
                0x0000b154      0x194 ./lwip/src/core/tcp_out.o
                0x0000b154                tcp_enqueue_flags
 .text.tcp_send_empty_ack
                0x0000b2e8       0xb8 ./lwip/src/core/tcp_out.o
                0x0000b2e8                tcp_send_empty_ack
 .text.tcp_output
                0x0000b3a0      0x390 ./lwip/src/core/tcp_out.o
                0x0000b3a0                tcp_output
 .text.tcp_output_segment
                0x0000b730      0x150 ./lwip/src/core/tcp_out.o
 .text.tcp_rst  0x0000b880       0xdc ./lwip/src/core/tcp_out.o
                0x0000b880                tcp_rst
 .text.tcp_rexmit_rto
                0x0000b95c       0x6c ./lwip/src/core/tcp_out.o
                0x0000b95c                tcp_rexmit_rto
 .text.tcp_rexmit
                0x0000b9c8       0xa0 ./lwip/src/core/tcp_out.o
                0x0000b9c8                tcp_rexmit
 .text.tcp_rexmit_fast
                0x0000ba68       0x9c ./lwip/src/core/tcp_out.o
                0x0000ba68                tcp_rexmit_fast
 .text.tcp_keepalive
                0x0000bb04       0x90 ./lwip/src/core/tcp_out.o
                0x0000bb04                tcp_keepalive
 .text.tcp_zero_window_probe
                0x0000bb94      0x14c ./lwip/src/core/tcp_out.o
                0x0000bb94                tcp_zero_window_probe
 .text.tcpip_tcp_timer
                0x0000bce0       0x48 ./lwip/src/core/timeouts.o
 .text.tcp_timer_needed
                0x0000bd28       0x40 ./lwip/src/core/timeouts.o
                0x0000bd28                tcp_timer_needed
 .text.cyclic_timer
                0x0000bd68       0x2c ./lwip/src/core/timeouts.o
 .text.sys_timeouts_init
                0x0000bd94       0x50 ./lwip/src/core/timeouts.o
                0x0000bd94                sys_timeouts_init
 .text.sys_timeout
                0x0000bde4      0x124 ./lwip/src/core/timeouts.o
                0x0000bde4                sys_timeout
 .text.udp_init
                0x0000bf08        0xe ./lwip/src/core/udp.o
                0x0000bf08                udp_init
 *fill*         0x0000bf16        0x2 
 .text.udp_new_port
                0x0000bf18       0x70 ./lwip/src/core/udp.o
 .text.udp_input_local_match
                0x0000bf88       0x78 ./lwip/src/core/udp.o
 .text.udp_input
                0x0000c000      0x224 ./lwip/src/core/udp.o
                0x0000c000                udp_input
 .text.udp_sendto
                0x0000c224       0x68 ./lwip/src/core/udp.o
                0x0000c224                udp_sendto
 .text.udp_sendto_if
                0x0000c28c       0x7a ./lwip/src/core/udp.o
                0x0000c28c                udp_sendto_if
 *fill*         0x0000c306        0x2 
 .text.udp_sendto_if_src
                0x0000c308      0x124 ./lwip/src/core/udp.o
                0x0000c308                udp_sendto_if_src
 .text.udp_bind
                0x0000c42c       0xe0 ./lwip/src/core/udp.o
                0x0000c42c                udp_bind
 .text.udp_connect
                0x0000c50c       0xac ./lwip/src/core/udp.o
                0x0000c50c                udp_connect
 .text.udp_recv
                0x0000c5b8       0x24 ./lwip/src/core/udp.o
                0x0000c5b8                udp_recv
 .text.udp_remove
                0x0000c5dc       0x64 ./lwip/src/core/udp.o
                0x0000c5dc                udp_remove
 .text.udp_new  0x0000c640       0x2e ./lwip/src/core/udp.o
                0x0000c640                udp_new
 *fill*         0x0000c66e        0x2 
 .text.udp_netif_ip_addr_changed
                0x0000c670       0x60 ./lwip/src/core/udp.o
                0x0000c670                udp_netif_ip_addr_changed
 .text.autoip_restart
                0x0000c6d0       0x28 ./lwip/src/core/ipv4/autoip.o
 .text.autoip_handle_arp_conflict
                0x0000c6f8       0x32 ./lwip/src/core/ipv4/autoip.o
 *fill*         0x0000c72a        0x2 
 .text.autoip_create_addr
                0x0000c72c       0x90 ./lwip/src/core/ipv4/autoip.o
 .text.autoip_arp_probe
                0x0000c7bc       0x22 ./lwip/src/core/ipv4/autoip.o
 .text.autoip_arp_announce
                0x0000c7de       0x1e ./lwip/src/core/ipv4/autoip.o
 .text.autoip_bind
                0x0000c7fc       0x32 ./lwip/src/core/ipv4/autoip.o
 *fill*         0x0000c82e        0x2 
 .text.autoip_start
                0x0000c830       0x9c ./lwip/src/core/ipv4/autoip.o
                0x0000c830                autoip_start
 .text.autoip_start_probing
                0x0000c8cc       0x8c ./lwip/src/core/ipv4/autoip.o
 .text.autoip_network_changed
                0x0000c958       0x2a ./lwip/src/core/ipv4/autoip.o
                0x0000c958                autoip_network_changed
 *fill*         0x0000c982        0x2 
 .text.autoip_stop
                0x0000c984       0x44 ./lwip/src/core/ipv4/autoip.o
                0x0000c984                autoip_stop
 .text.autoip_tmr
                0x0000c9c8      0x15c ./lwip/src/core/ipv4/autoip.o
                0x0000c9c8                autoip_tmr
 .text.autoip_arp_reply
                0x0000cb24       0xb2 ./lwip/src/core/ipv4/autoip.o
                0x0000cb24                autoip_arp_reply
 .text.autoip_accept_packet
                0x0000cbd6       0x36 ./lwip/src/core/ipv4/autoip.o
                0x0000cbd6                autoip_accept_packet
 .text.dhcp_inc_pcb_refcount
                0x0000cc0c       0x84 ./lwip/src/core/ipv4/dhcp.o
 .text.dhcp_dec_pcb_refcount
                0x0000cc90       0x34 ./lwip/src/core/ipv4/dhcp.o
 .text.dhcp_handle_nak
                0x0000ccc4       0x34 ./lwip/src/core/ipv4/dhcp.o
 .text.dhcp_check
                0x0000ccf8       0x68 ./lwip/src/core/ipv4/dhcp.o
 .text.dhcp_handle_offer
                0x0000cd60       0x48 ./lwip/src/core/ipv4/dhcp.o
 .text.dhcp_select
                0x0000cda8      0x14c ./lwip/src/core/ipv4/dhcp.o
 .text.dhcp_coarse_tmr
                0x0000cef4       0xa8 ./lwip/src/core/ipv4/dhcp.o
                0x0000cef4                dhcp_coarse_tmr
 .text.dhcp_fine_tmr
                0x0000cf9c       0x64 ./lwip/src/core/ipv4/dhcp.o
                0x0000cf9c                dhcp_fine_tmr
 .text.dhcp_timeout
                0x0000d000       0x92 ./lwip/src/core/ipv4/dhcp.o
 .text.dhcp_t1_timeout
                0x0000d092       0x5c ./lwip/src/core/ipv4/dhcp.o
 .text.dhcp_t2_timeout
                0x0000d0ee       0x64 ./lwip/src/core/ipv4/dhcp.o
 *fill*         0x0000d152        0x2 
 .text.dhcp_handle_ack
                0x0000d154      0x100 ./lwip/src/core/ipv4/dhcp.o
 .text.dhcp_start
                0x0000d254       0xb6 ./lwip/src/core/ipv4/dhcp.o
                0x0000d254                dhcp_start
 .text.dhcp_network_changed
                0x0000d30a       0x6a ./lwip/src/core/ipv4/dhcp.o
                0x0000d30a                dhcp_network_changed
 .text.dhcp_arp_reply
                0x0000d374       0x40 ./lwip/src/core/ipv4/dhcp.o
                0x0000d374                dhcp_arp_reply
 .text.dhcp_decline
                0x0000d3b4       0xd4 ./lwip/src/core/ipv4/dhcp.o
 .text.dhcp_discover
                0x0000d488      0x134 ./lwip/src/core/ipv4/dhcp.o
 .text.dhcp_bind
                0x0000d5bc      0x1a4 ./lwip/src/core/ipv4/dhcp.o
 .text.dhcp_renew
                0x0000d760      0x10c ./lwip/src/core/ipv4/dhcp.o
                0x0000d760                dhcp_renew
 .text.dhcp_rebind
                0x0000d86c      0x10c ./lwip/src/core/ipv4/dhcp.o
 .text.dhcp_reboot
                0x0000d978      0x128 ./lwip/src/core/ipv4/dhcp.o
 .text.dhcp_release
                0x0000daa0      0x110 ./lwip/src/core/ipv4/dhcp.o
                0x0000daa0                dhcp_release
 .text.dhcp_stop
                0x0000dbb0       0x52 ./lwip/src/core/ipv4/dhcp.o
                0x0000dbb0                dhcp_stop
 .text.dhcp_set_state
                0x0000dc02       0x34 ./lwip/src/core/ipv4/dhcp.o
 .text.dhcp_option
                0x0000dc36       0x4c ./lwip/src/core/ipv4/dhcp.o
 .text.dhcp_option_byte
                0x0000dc82       0x30 ./lwip/src/core/ipv4/dhcp.o
 .text.dhcp_option_short
                0x0000dcb2       0x52 ./lwip/src/core/ipv4/dhcp.o
 .text.dhcp_option_long
                0x0000dd04       0x8a ./lwip/src/core/ipv4/dhcp.o
 *fill*         0x0000dd8e        0x2 
 .text.dhcp_parse_reply
                0x0000dd90      0x45c ./lwip/src/core/ipv4/dhcp.o
 .text.dhcp_recv
                0x0000e1ec      0x1a8 ./lwip/src/core/ipv4/dhcp.o
 .text.dhcp_create_msg
                0x0000e394      0x23c ./lwip/src/core/ipv4/dhcp.o
 .text.dhcp_delete_msg
                0x0000e5d0       0x36 ./lwip/src/core/ipv4/dhcp.o
 .text.dhcp_option_trailer
                0x0000e606       0x6a ./lwip/src/core/ipv4/dhcp.o
 .text.dhcp_supplied_address
                0x0000e670       0x44 ./lwip/src/core/ipv4/dhcp.o
                0x0000e670                dhcp_supplied_address
 .text.etharp_free_entry
                0x0000e6b4       0x64 ./lwip/src/core/ipv4/etharp.o
 .text.etharp_tmr
                0x0000e718      0x150 ./lwip/src/core/ipv4/etharp.o
                0x0000e718                etharp_tmr
 .text.etharp_find_entry
                0x0000e868      0x208 ./lwip/src/core/ipv4/etharp.o
 .text.etharp_update_arp_entry
                0x0000ea70      0x128 ./lwip/src/core/ipv4/etharp.o
 .text.etharp_input
                0x0000eb98      0x144 ./lwip/src/core/ipv4/etharp.o
                0x0000eb98                etharp_input
 .text.etharp_output_to_arp_index
                0x0000ecdc      0x10c ./lwip/src/core/ipv4/etharp.o
 .text.etharp_output
                0x0000ede8      0x1b0 ./lwip/src/core/ipv4/etharp.o
                0x0000ede8                etharp_output
 .text.etharp_query
                0x0000ef98      0x258 ./lwip/src/core/ipv4/etharp.o
                0x0000ef98                etharp_query
 .text.etharp_raw
                0x0000f1f0      0x104 ./lwip/src/core/ipv4/etharp.o
 .text.etharp_request_dst
                0x0000f2f4       0x44 ./lwip/src/core/ipv4/etharp.o
 .text.etharp_request
                0x0000f338       0x24 ./lwip/src/core/ipv4/etharp.o
                0x0000f338                etharp_request
 .text.icmp_input
                0x0000f35c      0x270 ./lwip/src/core/ipv4/icmp.o
                0x0000f35c                icmp_input
 .text.icmp_dest_unreach
                0x0000f5cc       0x20 ./lwip/src/core/ipv4/icmp.o
                0x0000f5cc                icmp_dest_unreach
 .text.icmp_send_response
                0x0000f5ec       0xc4 ./lwip/src/core/ipv4/icmp.o
 .text.ip4_route
                0x0000f6b0       0xe4 ./lwip/src/core/ipv4/ip4.o
                0x0000f6b0                ip4_route
 .text.ip4_input
                0x0000f794      0x364 ./lwip/src/core/ipv4/ip4.o
                0x0000f794                ip4_input
 .text.ip4_output_if
                0x0000faf8       0x54 ./lwip/src/core/ipv4/ip4.o
                0x0000faf8                ip4_output_if
 .text.ip4_output_if_src
                0x0000fb4c      0x110 ./lwip/src/core/ipv4/ip4.o
                0x0000fb4c                ip4_output_if_src
 .text.ip4_addr_isbroadcast_u32
                0x0000fc5c       0x82 ./lwip/src/core/ipv4/ip4_addr.o
                0x0000fc5c                ip4_addr_isbroadcast_u32
 *fill*         0x0000fcde        0x2 
 .text.ethernet_input
                0x0000fce0      0x178 ./lwip/src/netif/ethernet.o
                0x0000fce0                ethernet_input
 .text.ethernet_output
                0x0000fe58       0x7c ./lwip/src/netif/ethernet.o
                0x0000fe58                ethernet_output
 .text.EMACReset
                0x0000fed4       0x3a C:/ti/simplelink_msp432e4_sdk_4_20_00_12/source\ti/devices/msp432e4/driverlib/lib/gcc/m4f/msp432e4_driverlib.a(emac.o)
                0x0000fed4                EMACReset
 *fill*         0x0000ff0e        0x2 
 .text.EMACPHYConfigSet
                0x0000ff10       0x8c C:/ti/simplelink_msp432e4_sdk_4_20_00_12/source\ti/devices/msp432e4/driverlib/lib/gcc/m4f/msp432e4_driverlib.a(emac.o)
                0x0000ff10                EMACPHYConfigSet
 .text.EMACConfigSet
                0x0000ff9c       0x64 C:/ti/simplelink_msp432e4_sdk_4_20_00_12/source\ti/devices/msp432e4/driverlib/lib/gcc/m4f/msp432e4_driverlib.a(emac.o)
                0x0000ff9c                EMACConfigSet
 .text.EMACConfigGet
                0x00010000       0x74 C:/ti/simplelink_msp432e4_sdk_4_20_00_12/source\ti/devices/msp432e4/driverlib/lib/gcc/m4f/msp432e4_driverlib.a(emac.o)
                0x00010000                EMACConfigGet
 .text.EMACAddrGet
                0x00010074       0x76 C:/ti/simplelink_msp432e4_sdk_4_20_00_12/source\ti/devices/msp432e4/driverlib/lib/gcc/m4f/msp432e4_driverlib.a(emac.o)
                0x00010074                EMACAddrGet
 *fill*         0x000100ea        0x2 
 .text.EMACFrameFilterSet
                0x000100ec       0x30 C:/ti/simplelink_msp432e4_sdk_4_20_00_12/source\ti/devices/msp432e4/driverlib/lib/gcc/m4f/msp432e4_driverlib.a(emac.o)
                0x000100ec                EMACFrameFilterSet
 .text.EMACTxDMAPollDemand
                0x0001011c       0x20 C:/ti/simplelink_msp432e4_sdk_4_20_00_12/source\ti/devices/msp432e4/driverlib/lib/gcc/m4f/msp432e4_driverlib.a(emac.o)
                0x0001011c                EMACTxDMAPollDemand
 .text.EMACRxDMADescriptorListSet
                0x0001013c       0x22 C:/ti/simplelink_msp432e4_sdk_4_20_00_12/source\ti/devices/msp432e4/driverlib/lib/gcc/m4f/msp432e4_driverlib.a(emac.o)
                0x0001013c                EMACRxDMADescriptorListSet
 .text.EMACTxDMADescriptorListSet
                0x0001015e       0x22 C:/ti/simplelink_msp432e4_sdk_4_20_00_12/source\ti/devices/msp432e4/driverlib/lib/gcc/m4f/msp432e4_driverlib.a(emac.o)
                0x0001015e                EMACTxDMADescriptorListSet
 .text.EMACTxEnable
                0x00010180       0x34 C:/ti/simplelink_msp432e4_sdk_4_20_00_12/source\ti/devices/msp432e4/driverlib/lib/gcc/m4f/msp432e4_driverlib.a(emac.o)
                0x00010180                EMACTxEnable
 .text.EMACRxEnable
                0x000101b4       0x34 C:/ti/simplelink_msp432e4_sdk_4_20_00_12/source\ti/devices/msp432e4/driverlib/lib/gcc/m4f/msp432e4_driverlib.a(emac.o)
                0x000101b4                EMACRxEnable
 .text.EMACIntEnable
                0x000101e8       0x7a C:/ti/simplelink_msp432e4_sdk_4_20_00_12/source\ti/devices/msp432e4/driverlib/lib/gcc/m4f/msp432e4_driverlib.a(emac.o)
                0x000101e8                EMACIntEnable
 .text.EMACIntStatus
                0x00010262       0x76 C:/ti/simplelink_msp432e4_sdk_4_20_00_12/source\ti/devices/msp432e4/driverlib/lib/gcc/m4f/msp432e4_driverlib.a(emac.o)
                0x00010262                EMACIntStatus
 .text.EMACIntClear
                0x000102d8       0x72 C:/ti/simplelink_msp432e4_sdk_4_20_00_12/source\ti/devices/msp432e4/driverlib/lib/gcc/m4f/msp432e4_driverlib.a(emac.o)
                0x000102d8                EMACIntClear
 .text.EMACPHYWrite
                0x0001034a       0x70 C:/ti/simplelink_msp432e4_sdk_4_20_00_12/source\ti/devices/msp432e4/driverlib/lib/gcc/m4f/msp432e4_driverlib.a(emac.o)
                0x0001034a                EMACPHYWrite
 .text.EMACPHYRead
                0x000103ba       0x64 C:/ti/simplelink_msp432e4_sdk_4_20_00_12/source\ti/devices/msp432e4/driverlib/lib/gcc/m4f/msp432e4_driverlib.a(emac.o)
                0x000103ba                EMACPHYRead
 .text.EMACTimestampIntStatus
                0x0001041e       0x1c C:/ti/simplelink_msp432e4_sdk_4_20_00_12/source\ti/devices/msp432e4/driverlib/lib/gcc/m4f/msp432e4_driverlib.a(emac.o)
                0x0001041e                EMACTimestampIntStatus
 .text.EMACPowerManagementStatusGet
                0x0001043a       0x1e C:/ti/simplelink_msp432e4_sdk_4_20_00_12/source\ti/devices/msp432e4/driverlib/lib/gcc/m4f/msp432e4_driverlib.a(emac.o)
                0x0001043a                EMACPowerManagementStatusGet
 .text.GPIODirModeSet
                0x00010458       0x76 C:/ti/simplelink_msp432e4_sdk_4_20_00_12/source\ti/devices/msp432e4/driverlib/lib/gcc/m4f/msp432e4_driverlib.a(gpio.o)
                0x00010458                GPIODirModeSet
 .text.GPIOPadConfigSet
                0x000104ce      0x2a4 C:/ti/simplelink_msp432e4_sdk_4_20_00_12/source\ti/devices/msp432e4/driverlib/lib/gcc/m4f/msp432e4_driverlib.a(gpio.o)
                0x000104ce                GPIOPadConfigSet
 .text.GPIOPinTypeEthernetLED
                0x00010772       0x2c C:/ti/simplelink_msp432e4_sdk_4_20_00_12/source\ti/devices/msp432e4/driverlib/lib/gcc/m4f/msp432e4_driverlib.a(gpio.o)
                0x00010772                GPIOPinTypeEthernetLED
 .text.IntMasterEnable
                0x0001079e       0x18 C:/ti/simplelink_msp432e4_sdk_4_20_00_12/source\ti/devices/msp432e4/driverlib/lib/gcc/m4f/msp432e4_driverlib.a(interrupt.o)
                0x0001079e                IntMasterEnable
 *fill*         0x000107b6        0x2 
 .text.IntEnable
                0x000107b8       0x94 C:/ti/simplelink_msp432e4_sdk_4_20_00_12/source\ti/devices/msp432e4/driverlib/lib/gcc/m4f/msp432e4_driverlib.a(interrupt.o)
                0x000107b8                IntEnable
 .text._SysCtlMemTimingGet
                0x0001084c       0x48 C:/ti/simplelink_msp432e4_sdk_4_20_00_12/source\ti/devices/msp432e4/driverlib/lib/gcc/m4f/msp432e4_driverlib.a(sysctl.o)
 .text._SysCtlFrequencyGet
                0x00010894       0x9c C:/ti/simplelink_msp432e4_sdk_4_20_00_12/source\ti/devices/msp432e4/driverlib/lib/gcc/m4f/msp432e4_driverlib.a(sysctl.o)
 .text.SysCtlPeripheralReady
                0x00010930       0x58 C:/ti/simplelink_msp432e4_sdk_4_20_00_12/source\ti/devices/msp432e4/driverlib/lib/gcc/m4f/msp432e4_driverlib.a(sysctl.o)
                0x00010930                SysCtlPeripheralReady
 .text.SysCtlPeripheralReset
                0x00010988       0x9c C:/ti/simplelink_msp432e4_sdk_4_20_00_12/source\ti/devices/msp432e4/driverlib/lib/gcc/m4f/msp432e4_driverlib.a(sysctl.o)
                0x00010988                SysCtlPeripheralReset
 .text.SysCtlDelay
                0x00010a24        0xa C:/ti/simplelink_msp432e4_sdk_4_20_00_12/source\ti/devices/msp432e4/driverlib/lib/gcc/m4f/msp432e4_driverlib.a(sysctl.o)
                0x00010a24                SysCtlDelay
 *fill*         0x00010a2e        0x2 
 .text.SysCtlMOSCConfigSet
                0x00010a30       0x20 C:/ti/simplelink_msp432e4_sdk_4_20_00_12/source\ti/devices/msp432e4/driverlib/lib/gcc/m4f/msp432e4_driverlib.a(sysctl.o)
                0x00010a30                SysCtlMOSCConfigSet
 .text.SysCtlClockFreqSet
                0x00010a50      0x32c C:/ti/simplelink_msp432e4_sdk_4_20_00_12/source\ti/devices/msp432e4/driverlib/lib/gcc/m4f/msp432e4_driverlib.a(sysctl.o)
                0x00010a50                SysCtlClockFreqSet
 .text.CPUcpsie
                0x00010d7c        0xe C:/ti/simplelink_msp432e4_sdk_4_20_00_12/source\ti/devices/msp432e4/driverlib/lib/gcc/m4f/msp432e4_driverlib.a(cpu.o)
                0x00010d7c                CPUcpsie
 *fill*         0x00010d8a        0x2 
 .text.exit     0x00010d8c       0x28 c:/ti/gcc_arm_none_eabi_9_2_1/bin/../lib/gcc/arm-none-eabi/9.2.1/../../../../arm-none-eabi/lib/thumb/v7e-m+fp/hard\libc_nano.a(lib_a-exit.o)
                0x00010d8c                exit
 .text.__libc_init_array
                0x00010db4       0x48 c:/ti/gcc_arm_none_eabi_9_2_1/bin/../lib/gcc/arm-none-eabi/9.2.1/../../../../arm-none-eabi/lib/thumb/v7e-m+fp/hard\libc_nano.a(lib_a-init.o)
                0x00010db4                __libc_init_array
 .text.malloc   0x00010dfc       0x10 c:/ti/gcc_arm_none_eabi_9_2_1/bin/../lib/gcc/arm-none-eabi/9.2.1/../../../../arm-none-eabi/lib/thumb/v7e-m+fp/hard\libc_nano.a(lib_a-malloc.o)
                0x00010dfc                malloc
 .text.free     0x00010e0c       0x10 c:/ti/gcc_arm_none_eabi_9_2_1/bin/../lib/gcc/arm-none-eabi/9.2.1/../../../../arm-none-eabi/lib/thumb/v7e-m+fp/hard\libc_nano.a(lib_a-malloc.o)
                0x00010e0c                free
 .text.memcmp   0x00010e1c       0x1c c:/ti/gcc_arm_none_eabi_9_2_1/bin/../lib/gcc/arm-none-eabi/9.2.1/../../../../arm-none-eabi/lib/thumb/v7e-m+fp/hard\libc_nano.a(lib_a-memcmp.o)
                0x00010e1c                memcmp
 .text.memcpy   0x00010e38       0x1c c:/ti/gcc_arm_none_eabi_9_2_1/bin/../lib/gcc/arm-none-eabi/9.2.1/../../../../arm-none-eabi/lib/thumb/v7e-m+fp/hard\libc_nano.a(lib_a-memcpy-stub.o)
                0x00010e38                memcpy
 .text.memset   0x00010e54       0x10 c:/ti/gcc_arm_none_eabi_9_2_1/bin/../lib/gcc/arm-none-eabi/9.2.1/../../../../arm-none-eabi/lib/thumb/v7e-m+fp/hard\libc_nano.a(lib_a-memset.o)
                0x00010e54                memset
 .text._free_r  0x00010e64       0xa0 c:/ti/gcc_arm_none_eabi_9_2_1/bin/../lib/gcc/arm-none-eabi/9.2.1/../../../../arm-none-eabi/lib/thumb/v7e-m+fp/hard\libc_nano.a(lib_a-nano-freer.o)
                0x00010e64                _free_r
 .text._malloc_r
                0x00010f04       0xb4 c:/ti/gcc_arm_none_eabi_9_2_1/bin/../lib/gcc/arm-none-eabi/9.2.1/../../../../arm-none-eabi/lib/thumb/v7e-m+fp/hard\libc_nano.a(lib_a-nano-mallocr.o)
                0x00010f04                _malloc_r
 .text.rand     0x00010fb8       0x68 c:/ti/gcc_arm_none_eabi_9_2_1/bin/../lib/gcc/arm-none-eabi/9.2.1/../../../../arm-none-eabi/lib/thumb/v7e-m+fp/hard\libc_nano.a(lib_a-rand.o)
                0x00010fb8                rand
 .text._sbrk_r  0x00011020       0x20 c:/ti/gcc_arm_none_eabi_9_2_1/bin/../lib/gcc/arm-none-eabi/9.2.1/../../../../arm-none-eabi/lib/thumb/v7e-m+fp/hard\libc_nano.a(lib_a-sbrkr.o)
                0x00011020                _sbrk_r
 .text.strchr   0x00011040       0x1a c:/ti/gcc_arm_none_eabi_9_2_1/bin/../lib/gcc/arm-none-eabi/9.2.1/../../../../arm-none-eabi/lib/thumb/v7e-m+fp/hard\libc_nano.a(lib_a-strchr.o)
                0x00011040                strchr
 .text.strncmp  0x0001105a       0x24 c:/ti/gcc_arm_none_eabi_9_2_1/bin/../lib/gcc/arm-none-eabi/9.2.1/../../../../arm-none-eabi/lib/thumb/v7e-m+fp/hard\libc_nano.a(lib_a-strncmp.o)
                0x0001105a                strncmp
 .text.strstr   0x0001107e       0x2e c:/ti/gcc_arm_none_eabi_9_2_1/bin/../lib/gcc/arm-none-eabi/9.2.1/../../../../arm-none-eabi/lib/thumb/v7e-m+fp/hard\libc_nano.a(lib_a-strstr.o)
                0x0001107e                strstr
 .text.__malloc_lock
                0x000110ac        0xc c:/ti/gcc_arm_none_eabi_9_2_1/bin/../lib/gcc/arm-none-eabi/9.2.1/../../../../arm-none-eabi/lib/thumb/v7e-m+fp/hard\libc_nano.a(lib_a-mlock.o)
                0x000110ac                __malloc_lock
 .text.__malloc_unlock
                0x000110b8        0xc c:/ti/gcc_arm_none_eabi_9_2_1/bin/../lib/gcc/arm-none-eabi/9.2.1/../../../../arm-none-eabi/lib/thumb/v7e-m+fp/hard\libc_nano.a(lib_a-mlock.o)
                0x000110b8                __malloc_unlock
 .text.__retarget_lock_acquire_recursive
                0x000110c4        0x2 c:/ti/gcc_arm_none_eabi_9_2_1/bin/../lib/gcc/arm-none-eabi/9.2.1/../../../../arm-none-eabi/lib/thumb/v7e-m+fp/hard\libc_nano.a(lib_a-lock.o)
                0x000110c4                __retarget_lock_acquire_recursive
 .text.__retarget_lock_release_recursive
                0x000110c6        0x2 c:/ti/gcc_arm_none_eabi_9_2_1/bin/../lib/gcc/arm-none-eabi/9.2.1/../../../../arm-none-eabi/lib/thumb/v7e-m+fp/hard\libc_nano.a(lib_a-lock.o)
                0x000110c6                __retarget_lock_release_recursive
 .text._sbrk    0x000110c8       0x1c c:/ti/gcc_arm_none_eabi_9_2_1/bin/../lib/gcc/arm-none-eabi/9.2.1/../../../../arm-none-eabi/lib/thumb/v7e-m+fp/hard\libnosys.a(sbrk.o)
                0x000110c8                _sbrk
 .text._exit    0x000110e4        0x4 c:/ti/gcc_arm_none_eabi_9_2_1/bin/../lib/gcc/arm-none-eabi/9.2.1/../../../../arm-none-eabi/lib/thumb/v7e-m+fp/hard\libnosys.a(_exit.o)
                0x000110e4                _exit
                0x000110e8                . = ALIGN (0x4)
 *(.ctors)
                0x000110e8                . = ALIGN (0x4)
 *(.dtors)
                0x000110e8                . = ALIGN (0x4)
                0x000110e8                __init_array_start = .
 *(.init_array*)
 .init_array    0x000110e8        0x4 c:/ti/gcc_arm_none_eabi_9_2_1/bin/../lib/gcc/arm-none-eabi/9.2.1/thumb/v7e-m+fp/hard/crtbegin.o
                0x000110ec                __init_array_end = .
 *(.init)
 .init          0x000110ec        0x4 c:/ti/gcc_arm_none_eabi_9_2_1/bin/../lib/gcc/arm-none-eabi/9.2.1/thumb/v7e-m+fp/hard/crti.o
                0x000110ec                _init
 .init          0x000110f0        0x8 c:/ti/gcc_arm_none_eabi_9_2_1/bin/../lib/gcc/arm-none-eabi/9.2.1/thumb/v7e-m+fp/hard/crtn.o
 *(.fini*)
 .fini          0x000110f8        0x4 c:/ti/gcc_arm_none_eabi_9_2_1/bin/../lib/gcc/arm-none-eabi/9.2.1/thumb/v7e-m+fp/hard/crti.o
                0x000110f8                _fini
 .fini_array    0x000110fc        0x4 c:/ti/gcc_arm_none_eabi_9_2_1/bin/../lib/gcc/arm-none-eabi/9.2.1/thumb/v7e-m+fp/hard/crtbegin.o
 .fini          0x00011100        0x8 c:/ti/gcc_arm_none_eabi_9_2_1/bin/../lib/gcc/arm-none-eabi/9.2.1/thumb/v7e-m+fp/hard/crtn.o

.glue_7         0x00011108        0x0
 .glue_7        0x00011108        0x0 linker stubs

.glue_7t        0x00011108        0x0
 .glue_7t       0x00011108        0x0 linker stubs

.vfp11_veneer   0x00011108        0x0
 .vfp11_veneer  0x00011108        0x0 linker stubs

.v4_bx          0x00011108        0x0
 .v4_bx         0x00011108        0x0 linker stubs

.iplt           0x00011108        0x0
 .iplt          0x00011108        0x0 c:/ti/gcc_arm_none_eabi_9_2_1/bin/../lib/gcc/arm-none-eabi/9.2.1/thumb/v7e-m+fp/hard/crtbegin.o

.rodata         0x00011108     0xccf4
 *(.rodata)
 .rodata        0x00011108       0xdd ./enet_io.o
 *fill*         0x000111e5        0x3 
 .rodata        0x000111e8       0x14 ./io_fs.o
 .rodata        0x000111fc       0x26 ./uartstdio.o
 *fill*         0x00011222        0x2 
 .rodata        0x00011224       0x1a ./ustdlib.o
 *fill*         0x0001123e        0x2 
 .rodata        0x00011240      0x545 ./lwip/src/apps/httpd/httpd.o
 *fill*         0x00011785        0x3 
 .rodata        0x00011788       0x48 ./lwip/src/core/def.o
 *(.rodata.*)
 .rodata.data_404_htm
                0x000117d0      0x127 ./io_fs.o
 *fill*         0x000118f7        0x1 
 .rodata.data_about_htm
                0x000118f8      0x65b ./io_fs.o
 *fill*         0x00011f53        0x1 
 .rodata.data_block_htm
                0x00011f54      0x1b1 ./io_fs.o
 *fill*         0x00012105        0x3 
 .rodata.data_index_htm
                0x00012108      0x5ca ./io_fs.o
 *fill*         0x000126d2        0x2 
 .rodata.data_io_cgi_ssi
                0x000126d4     0x1d29 ./io_fs.o
 *fill*         0x000143fd        0x3 
 .rodata.data_io_http_htm
                0x00014400      0x6ec ./io_fs.o
 .rodata.data_javascript_js
                0x00014aec     0x118b ./io_fs.o
 *fill*         0x00015c77        0x1 
 .rodata.data_javascript_load_js
                0x00015c78      0x1e8 ./io_fs.o
 .rodata.data_msp_jpg
                0x00015e60     0x4991 ./io_fs.o
 *fill*         0x0001a7f1        0x3 
 .rodata.data_msp432e4_htm
                0x0001a7f4      0x5f1 ./io_fs.o
 *fill*         0x0001ade5        0x3 
 .rodata.data_overview_htm
                0x0001ade8      0x465 ./io_fs.o
 *fill*         0x0001b24d        0x3 
 .rodata.data_perror_htm
                0x0001b250      0xb9f ./io_fs.o
 *fill*         0x0001bdef        0x1 
 .rodata.data_resources_htm
                0x0001bdf0      0x4d5 ./io_fs.o
 *fill*         0x0001c2c5        0x3 
 .rodata.data_styles_css
                0x0001c2c8      0x66e ./io_fs.o
 *fill*         0x0001c936        0x2 
 .rodata.data_ti_jpg
                0x0001c938      0xf81 ./io_fs.o
 *fill*         0x0001d8b9        0x3 
 .rodata.file_ti_jpg
                0x0001d8bc       0x14 ./io_fs.o
                0x0001d8bc                file_ti_jpg
 .rodata.file_styles_css
                0x0001d8d0       0x14 ./io_fs.o
                0x0001d8d0                file_styles_css
 .rodata.file_resources_htm
                0x0001d8e4       0x14 ./io_fs.o
                0x0001d8e4                file_resources_htm
 .rodata.file_perror_htm
                0x0001d8f8       0x14 ./io_fs.o
                0x0001d8f8                file_perror_htm
 .rodata.file_overview_htm
                0x0001d90c       0x14 ./io_fs.o
                0x0001d90c                file_overview_htm
 .rodata.file_msp432e4_htm
                0x0001d920       0x14 ./io_fs.o
                0x0001d920                file_msp432e4_htm
 .rodata.file_msp_jpg
                0x0001d934       0x14 ./io_fs.o
                0x0001d934                file_msp_jpg
 .rodata.file_javascript_load_js
                0x0001d948       0x14 ./io_fs.o
                0x0001d948                file_javascript_load_js
 .rodata.file_javascript_js
                0x0001d95c       0x14 ./io_fs.o
                0x0001d95c                file_javascript_js
 .rodata.file_io_http_htm
                0x0001d970       0x14 ./io_fs.o
                0x0001d970                file_io_http_htm
 .rodata.file_io_cgi_ssi
                0x0001d984       0x14 ./io_fs.o
                0x0001d984                file_io_cgi_ssi
 .rodata.file_index_htm
                0x0001d998       0x14 ./io_fs.o
                0x0001d998                file_index_htm
 .rodata.file_block_htm
                0x0001d9ac       0x14 ./io_fs.o
                0x0001d9ac                file_block_htm
 .rodata.file_about_htm
                0x0001d9c0       0x14 ./io_fs.o
                0x0001d9c0                file_about_htm
 .rodata.file_404_htm
                0x0001d9d4       0x14 ./io_fs.o
                0x0001d9d4                file_404_htm
 .rodata.g_ui32UARTBase
                0x0001d9e8        0xc ./uartstdio.o
 .rodata.g_ui32UARTPeriph
                0x0001d9f4        0xc ./uartstdio.o
 .rodata.g_psHTTPHeaders
                0x0001da00       0xa0 ./lwip/src/apps/httpd/httpd.o
 .rodata.g_pcSSIExtensions
                0x0001daa0       0x10 ./lwip/src/apps/httpd/httpd.o
 .rodata.g_psDefaultFilenames
                0x0001dab0       0x28 ./lwip/src/apps/httpd/httpd.o
                0x0001dab0                g_psDefaultFilenames
 .rodata.memp_UDP_PCB
                0x0001dad8       0x10 ./lwip/src/core/memp.o
                0x0001dad8                memp_UDP_PCB
 .rodata.memp_TCP_PCB
                0x0001dae8       0x10 ./lwip/src/core/memp.o
                0x0001dae8                memp_TCP_PCB
 .rodata.memp_TCP_PCB_LISTEN
                0x0001daf8       0x10 ./lwip/src/core/memp.o
                0x0001daf8                memp_TCP_PCB_LISTEN
 .rodata.memp_TCP_SEG
                0x0001db08       0x10 ./lwip/src/core/memp.o
                0x0001db08                memp_TCP_SEG
 .rodata.memp_SYS_TIMEOUT
                0x0001db18       0x10 ./lwip/src/core/memp.o
                0x0001db18                memp_SYS_TIMEOUT
 .rodata.memp_PBUF
                0x0001db28       0x10 ./lwip/src/core/memp.o
                0x0001db28                memp_PBUF
 .rodata.memp_PBUF_POOL
                0x0001db38       0x10 ./lwip/src/core/memp.o
                0x0001db38                memp_PBUF_POOL
 .rodata.memp_pools
                0x0001db48       0x1c ./lwip/src/core/memp.o
                0x0001db48                memp_pools
 .rodata.tcp_backoff
                0x0001db64        0xd ./lwip/src/core/tcp.o
 *fill*         0x0001db71        0x3 
 .rodata.tcp_persist_backoff
                0x0001db74        0x7 ./lwip/src/core/tcp.o
 *fill*         0x0001db7b        0x1 
 .rodata.tcp_pcb_lists
                0x0001db7c       0x10 ./lwip/src/core/tcp.o
                0x0001db7c                tcp_pcb_lists
 .rodata.lwip_cyclic_timers
                0x0001db8c       0x30 ./lwip/src/core/timeouts.o
                0x0001db8c                lwip_cyclic_timers
 .rodata.ip_addr_any
                0x0001dbbc        0x4 ./lwip/src/core/ipv4/ip4_addr.o
                0x0001dbbc                ip_addr_any
 .rodata.ip_addr_broadcast
                0x0001dbc0        0x4 ./lwip/src/core/ipv4/ip4_addr.o
                0x0001dbc0                ip_addr_broadcast
 .rodata.ethbroadcast
                0x0001dbc4        0x6 ./lwip/src/netif/ethernet.o
                0x0001dbc4                ethbroadcast
 *fill*         0x0001dbca        0x2 
 .rodata.ethzero
                0x0001dbcc        0x6 ./lwip/src/netif/ethernet.o
                0x0001dbcc                ethzero
 *fill*         0x0001dbd2        0x2 
 .rodata.g_pui32EnRegs
                0x0001dbd4       0x14 C:/ti/simplelink_msp432e4_sdk_4_20_00_12/source\ti/devices/msp432e4/driverlib/lib/gcc/m4f/msp432e4_driverlib.a(interrupt.o)
 .rodata.g_pui32Xtals
                0x0001dbe8       0x28 C:/ti/simplelink_msp432e4_sdk_4_20_00_12/source\ti/devices/msp432e4/driverlib/lib/gcc/m4f/msp432e4_driverlib.a(sysctl.o)
 .rodata.g_pppui32XTALtoVCO
                0x0001dc10      0x1b0 C:/ti/simplelink_msp432e4_sdk_4_20_00_12/source\ti/devices/msp432e4/driverlib/lib/gcc/m4f/msp432e4_driverlib.a(sysctl.o)
 .rodata.g_sXTALtoMEMTIM
                0x0001ddc0       0x30 C:/ti/simplelink_msp432e4_sdk_4_20_00_12/source\ti/devices/msp432e4/driverlib/lib/gcc/m4f/msp432e4_driverlib.a(sysctl.o)
 .rodata.g_pui32VCOFrequencies
                0x0001ddf0        0x8 C:/ti/simplelink_msp432e4_sdk_4_20_00_12/source\ti/devices/msp432e4/driverlib/lib/gcc/m4f/msp432e4_driverlib.a(sysctl.o)
 .rodata._global_impure_ptr
                0x0001ddf8        0x4 c:/ti/gcc_arm_none_eabi_9_2_1/bin/../lib/gcc/arm-none-eabi/9.2.1/../../../../arm-none-eabi/lib/thumb/v7e-m+fp/hard\libc_nano.a(lib_a-impure.o)
                0x0001ddf8                _global_impure_ptr

.eh_frame       0x0001ddfc        0x0
 .eh_frame      0x0001ddfc        0x0 c:/ti/gcc_arm_none_eabi_9_2_1/bin/../lib/gcc/arm-none-eabi/9.2.1/thumb/v7e-m+fp/hard/crtbegin.o

.ARM.exidx      0x0001ddfc        0x8
                0x0001ddfc                __exidx_start = .
 *(.ARM.exidx* .gnu.linkonce.armexidx.*)
 .ARM.exidx     0x0001ddfc        0x8 c:/ti/gcc_arm_none_eabi_9_2_1/bin/../lib/gcc/arm-none-eabi/9.2.1/../../../../arm-none-eabi/lib/thumb/v7e-m+fp/hard/crt0.o
 .ARM.exidx     0x0001de04        0x0 c:/ti/gcc_arm_none_eabi_9_2_1/bin/../lib/gcc/arm-none-eabi/9.2.1/thumb/v7e-m+fp/hard\libgcc.a(_udivmoddi4.o)
                                  0x8 (size before relaxing)
                0x0001de04                __exidx_end = .

.ARM.extab      0x0001de04        0x0
 *(.ARM.extab* .gnu.linkonce.armextab.*)
 .ARM.extab     0x0001de04        0x0 c:/ti/gcc_arm_none_eabi_9_2_1/bin/../lib/gcc/arm-none-eabi/9.2.1/../../../../arm-none-eabi/lib/thumb/v7e-m+fp/hard/crt0.o
 .ARM.extab     0x0001de04        0x0 c:/ti/gcc_arm_none_eabi_9_2_1/bin/../lib/gcc/arm-none-eabi/9.2.1/thumb/v7e-m+fp/hard\libgcc.a(_udivmoddi4.o)
                0x0001de04                __etext = .

.rel.dyn        0x0001de04        0x0
 .rel.iplt      0x0001de04        0x0 c:/ti/gcc_arm_none_eabi_9_2_1/bin/../lib/gcc/arm-none-eabi/9.2.1/thumb/v7e-m+fp/hard/crtbegin.o

.data           0x20000000       0xb4 load address 0x0001de04
                0x0001de04                __data_load__ = LOADADDR (.data)
                0x20000000                __data_start__ = .
 *(.data)
 .data          0x20000000        0x0 c:/ti/gcc_arm_none_eabi_9_2_1/bin/../lib/gcc/arm-none-eabi/9.2.1/thumb/v7e-m+fp/hard/crti.o
 .data          0x20000000        0x4 c:/ti/gcc_arm_none_eabi_9_2_1/bin/../lib/gcc/arm-none-eabi/9.2.1/thumb/v7e-m+fp/hard/crtbegin.o
                0x20000000                __dso_handle
 .data          0x20000004        0x0 c:/ti/gcc_arm_none_eabi_9_2_1/bin/../lib/gcc/arm-none-eabi/9.2.1/../../../../arm-none-eabi/lib/thumb/v7e-m+fp/hard/crt0.o
 .data          0x20000004        0x0 ./RTE.o
 .data          0x20000004        0x0 ./cgifuncs.o
 .data          0x20000004        0x0 ./enet_io.o
 .data          0x20000004        0x0 ./io.o
 .data          0x20000004        0x0 ./io_fs.o
 .data          0x20000004        0x0 ./pinout.o
 .data          0x20000004        0x0 ./system_msp432e401y.o
 .data          0x20000004        0x0 ./uartstdio.o
 .data          0x20000004        0x0 ./ustdlib.o
 .data          0x20000004        0x0 ./Kernal/kernal/List.o
 .data          0x20000004        0x0 ./Kernal/kernal/Mutex.o
 .data          0x20000004        0x0 ./Kernal/kernal/PeridicTask.o
 .data          0x20000004        0x0 ./Kernal/kernal/SquadRTOS.o
 .data          0x20000004        0x0 ./Kernal/kernal/SquadRTOS_Handlers.o
 .data          0x20000004        0x0 ./Kernal/kernal/SquadRTOS_Systemcall.o
 .data          0x20000004        0x0 ./Kernal/kernal/kenal.o
 .data          0x20000004        0x0 ./Kernal/kernal/mailBox.o
 .data          0x20000004        0x0 ./Kernal/kernal/queue.o
 .data          0x20000004        0x0 ./Kernal/kernal/thread.o
 .data          0x20000004        0x0 ./gcc/startup_msp432e401y_gcc.o
 .data          0x20000004        0x0 ./lwip/ports/msp432e4/netif/msp432e4if.o
 .data          0x20000004        0x0 ./lwip/ports/msp432e4/perf.o
 .data          0x20000004        0x0 ./lwip/ports/msp432e4/sys_arch.o
 .data          0x20000004        0x0 ./lwip/ports/msp432e4/utils/locator.o
 .data          0x20000004        0x0 ./lwip/ports/msp432e4/utils/lwiplib.o
 .data          0x20000004        0x0 ./lwip/ports/msp432e4/utils/swupdate.o
 .data          0x20000004        0x0 ./lwip/src/api/api_lib.o
 .data          0x20000004        0x0 ./lwip/src/api/api_msg.o
 .data          0x20000004        0x0 ./lwip/src/api/err.o
 .data          0x20000004        0x0 ./lwip/src/api/netbuf.o
 .data          0x20000004        0x0 ./lwip/src/api/netdb.o
 .data          0x20000004        0x0 ./lwip/src/api/netifapi.o
 .data          0x20000004        0x0 ./lwip/src/api/sockets.o
 .data          0x20000004        0x0 ./lwip/src/api/tcpip.o
 .data          0x20000004        0x0 ./lwip/src/apps/httpd/httpd.o
 .data          0x20000004        0x0 ./lwip/src/apps/lwiperf/lwiperf.o
 .data          0x20000004        0x0 ./lwip/src/apps/mdns/mdns.o
 .data          0x20000004        0x0 ./lwip/src/apps/mqtt/mqtt.o
 .data          0x20000004        0x0 ./lwip/src/apps/netbiosns/netbiosns.o
 .data          0x20000004        0x0 ./lwip/src/apps/snmp/snmp_asn1.o
 .data          0x20000004        0x0 ./lwip/src/apps/snmp/snmp_core.o
 .data          0x20000004        0x0 ./lwip/src/apps/snmp/snmp_mib2.o
 .data          0x20000004        0x0 ./lwip/src/apps/snmp/snmp_mib2_icmp.o
 .data          0x20000004        0x0 ./lwip/src/apps/snmp/snmp_mib2_interfaces.o
 .data          0x20000004        0x0 ./lwip/src/apps/snmp/snmp_mib2_ip.o
 .data          0x20000004        0x0 ./lwip/src/apps/snmp/snmp_mib2_snmp.o
 .data          0x20000004        0x0 ./lwip/src/apps/snmp/snmp_mib2_system.o
 .data          0x20000004        0x0 ./lwip/src/apps/snmp/snmp_mib2_tcp.o
 .data          0x20000004        0x0 ./lwip/src/apps/snmp/snmp_mib2_udp.o
 .data          0x20000004        0x0 ./lwip/src/apps/snmp/snmp_msg.o
 .data          0x20000004        0x0 ./lwip/src/apps/snmp/snmp_netconn.o
 .data          0x20000004        0x0 ./lwip/src/apps/snmp/snmp_pbuf_stream.o
 .data          0x20000004        0x0 ./lwip/src/apps/snmp/snmp_raw.o
 .data          0x20000004        0x0 ./lwip/src/apps/snmp/snmp_scalar.o
 .data          0x20000004        0x0 ./lwip/src/apps/snmp/snmp_table.o
 .data          0x20000004        0x0 ./lwip/src/apps/snmp/snmp_threadsync.o
 .data          0x20000004        0x0 ./lwip/src/apps/snmp/snmp_traps.o
 .data          0x20000004        0x0 ./lwip/src/apps/snmp/snmpv3.o
 .data          0x20000004        0x0 ./lwip/src/apps/snmp/snmpv3_dummy.o
 .data          0x20000004        0x0 ./lwip/src/apps/snmp/snmpv3_mbedtls.o
 .data          0x20000004        0x0 ./lwip/src/apps/sntp/sntp.o
 .data          0x20000004        0x0 ./lwip/src/apps/tftp/tftp_server.o
 .data          0x20000004        0x0 ./lwip/src/core/def.o
 .data          0x20000004        0x0 ./lwip/src/core/dns.o
 .data          0x20000004        0x0 ./lwip/src/core/inet_chksum.o
 .data          0x20000004        0x0 ./lwip/src/core/init.o
 .data          0x20000004        0x0 ./lwip/src/core/ip.o
 .data          0x20000004        0x0 ./lwip/src/core/mem.o
 .data          0x20000004        0x0 ./lwip/src/core/memp.o
 .data          0x20000004        0x0 ./lwip/src/core/netif.o
 .data          0x20000004        0x0 ./lwip/src/core/pbuf.o
 .data          0x20000004        0x0 ./lwip/src/core/raw.o
 .data          0x20000004        0x0 ./lwip/src/core/stats.o
 .data          0x20000004        0x0 ./lwip/src/core/sys.o
 .data          0x20000004        0x0 ./lwip/src/core/tcp.o
 .data          0x20000004        0x0 ./lwip/src/core/tcp_in.o
 .data          0x20000004        0x0 ./lwip/src/core/tcp_out.o
 .data          0x20000004        0x0 ./lwip/src/core/timeouts.o
 .data          0x20000004        0x0 ./lwip/src/core/udp.o
 .data          0x20000004        0x0 ./lwip/src/core/ipv4/autoip.o
 .data          0x20000004        0x0 ./lwip/src/core/ipv4/dhcp.o
 .data          0x20000004        0x0 ./lwip/src/core/ipv4/etharp.o
 .data          0x20000004        0x0 ./lwip/src/core/ipv4/icmp.o
 .data          0x20000004        0x0 ./lwip/src/core/ipv4/igmp.o
 .data          0x20000004        0x0 ./lwip/src/core/ipv4/ip4.o
 .data          0x20000004        0x0 ./lwip/src/core/ipv4/ip4_addr.o
 .data          0x20000004        0x0 ./lwip/src/core/ipv4/ip4_frag.o
 .data          0x20000004        0x0 ./lwip/src/core/ipv6/dhcp6.o
 .data          0x20000004        0x0 ./lwip/src/core/ipv6/ethip6.o
 .data          0x20000004        0x0 ./lwip/src/core/ipv6/icmp6.o
 .data          0x20000004        0x0 ./lwip/src/core/ipv6/inet6.o
 .data          0x20000004        0x0 ./lwip/src/core/ipv6/ip6.o
 .data          0x20000004        0x0 ./lwip/src/core/ipv6/ip6_addr.o
 .data          0x20000004        0x0 ./lwip/src/core/ipv6/ip6_frag.o
 .data          0x20000004        0x0 ./lwip/src/core/ipv6/mld6.o
 .data          0x20000004        0x0 ./lwip/src/core/ipv6/nd6.o
 .data          0x20000004        0x0 ./lwip/src/netif/ethernet.o
 .data          0x20000004        0x0 ./lwip/src/netif/ethernetif.o
 .data          0x20000004        0x0 ./lwip/src/netif/lowpan6.o
 .data          0x20000004        0x0 ./lwip/src/netif/slipif.o
 .data          0x20000004        0x0 ./lwip/src/netif/ppp/auth.o
 .data          0x20000004        0x0 ./lwip/src/netif/ppp/ccp.o
 .data          0x20000004        0x0 ./lwip/src/netif/ppp/chap-md5.o
 .data          0x20000004        0x0 ./lwip/src/netif/ppp/chap-new.o
 .data          0x20000004        0x0 ./lwip/src/netif/ppp/chap_ms.o
 .data          0x20000004        0x0 ./lwip/src/netif/ppp/demand.o
 .data          0x20000004        0x0 ./lwip/src/netif/ppp/eap.o
 .data          0x20000004        0x0 ./lwip/src/netif/ppp/ecp.o
 .data          0x20000004        0x0 ./lwip/src/netif/ppp/eui64.o
 .data          0x20000004        0x0 ./lwip/src/netif/ppp/fsm.o
 .data          0x20000004        0x0 ./lwip/src/netif/ppp/ipcp.o
 .data          0x20000004        0x0 ./lwip/src/netif/ppp/ipv6cp.o
 .data          0x20000004        0x0 ./lwip/src/netif/ppp/lcp.o
 .data          0x20000004        0x0 ./lwip/src/netif/ppp/magic.o
 .data          0x20000004        0x0 ./lwip/src/netif/ppp/mppe.o
 .data          0x20000004        0x0 ./lwip/src/netif/ppp/multilink.o
 .data          0x20000004        0x0 ./lwip/src/netif/ppp/ppp.o
 .data          0x20000004        0x0 ./lwip/src/netif/ppp/pppapi.o
 .data          0x20000004        0x0 ./lwip/src/netif/ppp/pppcrypt.o
 .data          0x20000004        0x0 ./lwip/src/netif/ppp/pppoe.o
 .data          0x20000004        0x0 ./lwip/src/netif/ppp/pppol2tp.o
 .data          0x20000004        0x0 ./lwip/src/netif/ppp/pppos.o
 .data          0x20000004        0x0 ./lwip/src/netif/ppp/upap.o
 .data          0x20000004        0x0 ./lwip/src/netif/ppp/utils.o
 .data          0x20000004        0x0 ./lwip/src/netif/ppp/vj.o
 .data          0x20000004        0x0 ./lwip/src/netif/ppp/polarssl/arc4.o
 .data          0x20000004        0x0 ./lwip/src/netif/ppp/polarssl/des.o
 .data          0x20000004        0x0 ./lwip/src/netif/ppp/polarssl/md4.o
 .data          0x20000004        0x0 ./lwip/src/netif/ppp/polarssl/md5.o
 .data          0x20000004        0x0 ./lwip/src/netif/ppp/polarssl/sha1.o
 .data          0x20000004        0x0 C:/ti/simplelink_msp432e4_sdk_4_20_00_12/source\ti/devices/msp432e4/driverlib/lib/gcc/m4f/msp432e4_driverlib.a(emac.o)
 .data          0x20000004        0x0 C:/ti/simplelink_msp432e4_sdk_4_20_00_12/source\ti/devices/msp432e4/driverlib/lib/gcc/m4f/msp432e4_driverlib.a(flash.o)
 .data          0x20000004        0x0 C:/ti/simplelink_msp432e4_sdk_4_20_00_12/source\ti/devices/msp432e4/driverlib/lib/gcc/m4f/msp432e4_driverlib.a(gpio.o)
 .data          0x20000004        0x0 C:/ti/simplelink_msp432e4_sdk_4_20_00_12/source\ti/devices/msp432e4/driverlib/lib/gcc/m4f/msp432e4_driverlib.a(interrupt.o)
 .data          0x20000004        0x0 C:/ti/simplelink_msp432e4_sdk_4_20_00_12/source\ti/devices/msp432e4/driverlib/lib/gcc/m4f/msp432e4_driverlib.a(sw_crc.o)
 .data          0x20000004        0x0 C:/ti/simplelink_msp432e4_sdk_4_20_00_12/source\ti/devices/msp432e4/driverlib/lib/gcc/m4f/msp432e4_driverlib.a(sysctl.o)
 .data          0x20000004        0x0 C:/ti/simplelink_msp432e4_sdk_4_20_00_12/source\ti/devices/msp432e4/driverlib/lib/gcc/m4f/msp432e4_driverlib.a(systick.o)
 .data          0x20000004        0x0 C:/ti/simplelink_msp432e4_sdk_4_20_00_12/source\ti/devices/msp432e4/driverlib/lib/gcc/m4f/msp432e4_driverlib.a(cpu.o)
 .data          0x20000004        0x0 c:/ti/gcc_arm_none_eabi_9_2_1/bin/../lib/gcc/arm-none-eabi/9.2.1/thumb/v7e-m+fp/hard\libgcc.a(_aeabi_ldivmod.o)
 .data          0x20000004        0x0 c:/ti/gcc_arm_none_eabi_9_2_1/bin/../lib/gcc/arm-none-eabi/9.2.1/thumb/v7e-m+fp/hard\libgcc.a(_udivmoddi4.o)
 .data          0x20000004        0x0 c:/ti/gcc_arm_none_eabi_9_2_1/bin/../lib/gcc/arm-none-eabi/9.2.1/thumb/v7e-m+fp/hard\libgcc.a(_dvmd_tls.o)
 .data          0x20000004        0x0 c:/ti/gcc_arm_none_eabi_9_2_1/bin/../lib/gcc/arm-none-eabi/9.2.1/../../../../arm-none-eabi/lib/thumb/v7e-m+fp/hard\libc_nano.a(lib_a-exit.o)
 .data          0x20000004        0x0 c:/ti/gcc_arm_none_eabi_9_2_1/bin/../lib/gcc/arm-none-eabi/9.2.1/../../../../arm-none-eabi/lib/thumb/v7e-m+fp/hard\libc_nano.a(lib_a-impure.o)
 .data          0x20000004        0x0 c:/ti/gcc_arm_none_eabi_9_2_1/bin/../lib/gcc/arm-none-eabi/9.2.1/../../../../arm-none-eabi/lib/thumb/v7e-m+fp/hard\libc_nano.a(lib_a-init.o)
 .data          0x20000004        0x0 c:/ti/gcc_arm_none_eabi_9_2_1/bin/../lib/gcc/arm-none-eabi/9.2.1/../../../../arm-none-eabi/lib/thumb/v7e-m+fp/hard\libc_nano.a(lib_a-malloc.o)
 .data          0x20000004        0x0 c:/ti/gcc_arm_none_eabi_9_2_1/bin/../lib/gcc/arm-none-eabi/9.2.1/../../../../arm-none-eabi/lib/thumb/v7e-m+fp/hard\libc_nano.a(lib_a-memcmp.o)
 .data          0x20000004        0x0 c:/ti/gcc_arm_none_eabi_9_2_1/bin/../lib/gcc/arm-none-eabi/9.2.1/../../../../arm-none-eabi/lib/thumb/v7e-m+fp/hard\libc_nano.a(lib_a-memcpy-stub.o)
 .data          0x20000004        0x0 c:/ti/gcc_arm_none_eabi_9_2_1/bin/../lib/gcc/arm-none-eabi/9.2.1/../../../../arm-none-eabi/lib/thumb/v7e-m+fp/hard\libc_nano.a(lib_a-memset.o)
 .data          0x20000004        0x0 c:/ti/gcc_arm_none_eabi_9_2_1/bin/../lib/gcc/arm-none-eabi/9.2.1/../../../../arm-none-eabi/lib/thumb/v7e-m+fp/hard\libc_nano.a(lib_a-nano-freer.o)
 .data          0x20000004        0x0 c:/ti/gcc_arm_none_eabi_9_2_1/bin/../lib/gcc/arm-none-eabi/9.2.1/../../../../arm-none-eabi/lib/thumb/v7e-m+fp/hard\libc_nano.a(lib_a-nano-mallocr.o)
 .data          0x20000004        0x0 c:/ti/gcc_arm_none_eabi_9_2_1/bin/../lib/gcc/arm-none-eabi/9.2.1/../../../../arm-none-eabi/lib/thumb/v7e-m+fp/hard\libc_nano.a(lib_a-rand.o)
 .data          0x20000004        0x0 c:/ti/gcc_arm_none_eabi_9_2_1/bin/../lib/gcc/arm-none-eabi/9.2.1/../../../../arm-none-eabi/lib/thumb/v7e-m+fp/hard\libc_nano.a(lib_a-sbrkr.o)
 .data          0x20000004        0x0 c:/ti/gcc_arm_none_eabi_9_2_1/bin/../lib/gcc/arm-none-eabi/9.2.1/../../../../arm-none-eabi/lib/thumb/v7e-m+fp/hard\libc_nano.a(lib_a-strchr.o)
 .data          0x20000004        0x0 c:/ti/gcc_arm_none_eabi_9_2_1/bin/../lib/gcc/arm-none-eabi/9.2.1/../../../../arm-none-eabi/lib/thumb/v7e-m+fp/hard\libc_nano.a(lib_a-strcmp.o)
 .data          0x20000004        0x0 c:/ti/gcc_arm_none_eabi_9_2_1/bin/../lib/gcc/arm-none-eabi/9.2.1/../../../../arm-none-eabi/lib/thumb/v7e-m+fp/hard\libc_nano.a(lib_a-strlen.o)
 .data          0x20000004        0x0 c:/ti/gcc_arm_none_eabi_9_2_1/bin/../lib/gcc/arm-none-eabi/9.2.1/../../../../arm-none-eabi/lib/thumb/v7e-m+fp/hard\libc_nano.a(lib_a-strncmp.o)
 .data          0x20000004        0x0 c:/ti/gcc_arm_none_eabi_9_2_1/bin/../lib/gcc/arm-none-eabi/9.2.1/../../../../arm-none-eabi/lib/thumb/v7e-m+fp/hard\libc_nano.a(lib_a-strstr.o)
 .data          0x20000004        0x0 c:/ti/gcc_arm_none_eabi_9_2_1/bin/../lib/gcc/arm-none-eabi/9.2.1/../../../../arm-none-eabi/lib/thumb/v7e-m+fp/hard\libc_nano.a(lib_a-mlock.o)
 .data          0x20000004        0x0 c:/ti/gcc_arm_none_eabi_9_2_1/bin/../lib/gcc/arm-none-eabi/9.2.1/../../../../arm-none-eabi/lib/thumb/v7e-m+fp/hard\libc_nano.a(lib_a-reent.o)
 .data          0x20000004        0x0 c:/ti/gcc_arm_none_eabi_9_2_1/bin/../lib/gcc/arm-none-eabi/9.2.1/../../../../arm-none-eabi/lib/thumb/v7e-m+fp/hard\libc_nano.a(lib_a-lock.o)
 .data          0x20000004        0x0 c:/ti/gcc_arm_none_eabi_9_2_1/bin/../lib/gcc/arm-none-eabi/9.2.1/../../../../arm-none-eabi/lib/thumb/v7e-m+fp/hard\libnosys.a(sbrk.o)
 .data          0x20000004        0x0 c:/ti/gcc_arm_none_eabi_9_2_1/bin/../lib/gcc/arm-none-eabi/9.2.1/../../../../arm-none-eabi/lib/thumb/v7e-m+fp/hard\libnosys.a(_exit.o)
 .data          0x20000004        0x0 c:/ti/gcc_arm_none_eabi_9_2_1/bin/../lib/gcc/arm-none-eabi/9.2.1/thumb/v7e-m+fp/hard/crtend.o
 .data          0x20000004        0x0 c:/ti/gcc_arm_none_eabi_9_2_1/bin/../lib/gcc/arm-none-eabi/9.2.1/thumb/v7e-m+fp/hard/crtn.o
 *(.data*)
 .data.g_ulAnimSpeed
                0x20000004        0x4 ./io.o
                0x20000004                g_ulAnimSpeed
 .data.SystemCoreClock
                0x20000008        0x4 ./system_msp432e401y.o
                0x20000008                SystemCoreClock
 .data.g_iRandomSeed
                0x2000000c        0x4 ./ustdlib.o
 .data.u32theBestPriority
                0x20000010        0x4 ./Kernal/kernal/thread.o
 .data.g_TxDescList
                0x20000014       0x10 ./lwip/ports/msp432e4/netif/msp432e4if.o
                0x20000014                g_TxDescList
 .data.g_RxDescList
                0x20000024       0x10 ./lwip/ports/msp432e4/netif/msp432e4if.o
                0x20000024                g_RxDescList
 .data.g_MSP432E4IFData
                0x20000034        0xc ./lwip/ports/msp432e4/netif/msp432e4if.o
 .data.tcp_port
                0x20000040        0x2 ./lwip/src/core/tcp.o
 *fill*         0x20000042        0x2 
 .data.iss.7082
                0x20000044        0x4 ./lwip/src/core/tcp.o
 .data.udp_port
                0x20000048        0x2 ./lwip/src/core/udp.o
 *fill*         0x2000004a        0x2 
 .data.dhcp_discover_request_options
                0x2000004c        0x4 ./lwip/src/core/ipv4/dhcp.o
 .data._impure_ptr
                0x20000050        0x4 c:/ti/gcc_arm_none_eabi_9_2_1/bin/../lib/gcc/arm-none-eabi/9.2.1/../../../../arm-none-eabi/lib/thumb/v7e-m+fp/hard\libc_nano.a(lib_a-impure.o)
                0x20000050                _impure_ptr
 .data.impure_data
                0x20000054       0x60 c:/ti/gcc_arm_none_eabi_9_2_1/bin/../lib/gcc/arm-none-eabi/9.2.1/../../../../arm-none-eabi/lib/thumb/v7e-m+fp/hard\libc_nano.a(lib_a-impure.o)
                0x200000b4                . = ALIGN (0x4)
                0x200000b4                __data_end__ = .

.igot.plt       0x200000b4        0x0 load address 0x0001deb8
 .igot.plt      0x200000b4        0x0 c:/ti/gcc_arm_none_eabi_9_2_1/bin/../lib/gcc/arm-none-eabi/9.2.1/thumb/v7e-m+fp/hard/crtbegin.o

.bss            0x200000b8    0x14418
                0x200000b8                __bss_start__ = .
 *(.shbss)
 *(.bss)
 .bss           0x200000b8        0x0 c:/ti/gcc_arm_none_eabi_9_2_1/bin/../lib/gcc/arm-none-eabi/9.2.1/thumb/v7e-m+fp/hard/crti.o
 .bss           0x200000b8       0x1c c:/ti/gcc_arm_none_eabi_9_2_1/bin/../lib/gcc/arm-none-eabi/9.2.1/thumb/v7e-m+fp/hard/crtbegin.o
 .bss           0x200000d4        0x0 c:/ti/gcc_arm_none_eabi_9_2_1/bin/../lib/gcc/arm-none-eabi/9.2.1/../../../../arm-none-eabi/lib/thumb/v7e-m+fp/hard/crt0.o
 .bss           0x200000d4        0x0 ./RTE.o
 .bss           0x200000d4        0x0 ./cgifuncs.o
 .bss           0x200000d4        0x0 ./enet_io.o
 .bss           0x200000d4        0x0 ./io.o
 .bss           0x200000d4        0x0 ./io_fs.o
 .bss           0x200000d4        0x0 ./pinout.o
 .bss           0x200000d4        0x0 ./system_msp432e401y.o
 .bss           0x200000d4        0x0 ./uartstdio.o
 .bss           0x200000d4        0x0 ./ustdlib.o
 .bss           0x200000d4        0x0 ./Kernal/kernal/List.o
 .bss           0x200000d4        0x0 ./Kernal/kernal/Mutex.o
 .bss           0x200000d4        0x0 ./Kernal/kernal/PeridicTask.o
 .bss           0x200000d4        0x0 ./Kernal/kernal/SquadRTOS.o
 .bss           0x200000d4        0x0 ./Kernal/kernal/SquadRTOS_Handlers.o
 .bss           0x200000d4        0x0 ./Kernal/kernal/SquadRTOS_Systemcall.o
 .bss           0x200000d4        0x0 ./Kernal/kernal/kenal.o
 .bss           0x200000d4        0x0 ./Kernal/kernal/mailBox.o
 .bss           0x200000d4        0x0 ./Kernal/kernal/queue.o
 .bss           0x200000d4        0x0 ./Kernal/kernal/thread.o
 .bss           0x200000d4        0x0 ./gcc/startup_msp432e401y_gcc.o
 .bss           0x200000d4        0x0 ./lwip/ports/msp432e4/netif/msp432e4if.o
 .bss           0x200000d4        0x0 ./lwip/ports/msp432e4/perf.o
 .bss           0x200000d4        0x0 ./lwip/ports/msp432e4/sys_arch.o
 .bss           0x200000d4        0x0 ./lwip/ports/msp432e4/utils/locator.o
 .bss           0x200000d4        0x0 ./lwip/ports/msp432e4/utils/lwiplib.o
 .bss           0x200000d4        0x0 ./lwip/ports/msp432e4/utils/swupdate.o
 .bss           0x200000d4        0x0 ./lwip/src/api/api_lib.o
 .bss           0x200000d4        0x0 ./lwip/src/api/api_msg.o
 .bss           0x200000d4        0x0 ./lwip/src/api/err.o
 .bss           0x200000d4        0x0 ./lwip/src/api/netbuf.o
 .bss           0x200000d4        0x0 ./lwip/src/api/netdb.o
 .bss           0x200000d4        0x0 ./lwip/src/api/netifapi.o
 .bss           0x200000d4        0x0 ./lwip/src/api/sockets.o
 .bss           0x200000d4        0x0 ./lwip/src/api/tcpip.o
 .bss           0x200000d4        0x0 ./lwip/src/apps/httpd/httpd.o
 .bss           0x200000d4        0x0 ./lwip/src/apps/lwiperf/lwiperf.o
 .bss           0x200000d4        0x0 ./lwip/src/apps/mdns/mdns.o
 .bss           0x200000d4        0x0 ./lwip/src/apps/mqtt/mqtt.o
 .bss           0x200000d4        0x0 ./lwip/src/apps/netbiosns/netbiosns.o
 .bss           0x200000d4        0x0 ./lwip/src/apps/snmp/snmp_asn1.o
 .bss           0x200000d4        0x0 ./lwip/src/apps/snmp/snmp_core.o
 .bss           0x200000d4        0x0 ./lwip/src/apps/snmp/snmp_mib2.o
 .bss           0x200000d4        0x0 ./lwip/src/apps/snmp/snmp_mib2_icmp.o
 .bss           0x200000d4        0x0 ./lwip/src/apps/snmp/snmp_mib2_interfaces.o
 .bss           0x200000d4        0x0 ./lwip/src/apps/snmp/snmp_mib2_ip.o
 .bss           0x200000d4        0x0 ./lwip/src/apps/snmp/snmp_mib2_snmp.o
 .bss           0x200000d4        0x0 ./lwip/src/apps/snmp/snmp_mib2_system.o
 .bss           0x200000d4        0x0 ./lwip/src/apps/snmp/snmp_mib2_tcp.o
 .bss           0x200000d4        0x0 ./lwip/src/apps/snmp/snmp_mib2_udp.o
 .bss           0x200000d4        0x0 ./lwip/src/apps/snmp/snmp_msg.o
 .bss           0x200000d4        0x0 ./lwip/src/apps/snmp/snmp_netconn.o
 .bss           0x200000d4        0x0 ./lwip/src/apps/snmp/snmp_pbuf_stream.o
 .bss           0x200000d4        0x0 ./lwip/src/apps/snmp/snmp_raw.o
 .bss           0x200000d4        0x0 ./lwip/src/apps/snmp/snmp_scalar.o
 .bss           0x200000d4        0x0 ./lwip/src/apps/snmp/snmp_table.o
 .bss           0x200000d4        0x0 ./lwip/src/apps/snmp/snmp_threadsync.o
 .bss           0x200000d4        0x0 ./lwip/src/apps/snmp/snmp_traps.o
 .bss           0x200000d4        0x0 ./lwip/src/apps/snmp/snmpv3.o
 .bss           0x200000d4        0x0 ./lwip/src/apps/snmp/snmpv3_dummy.o
 .bss           0x200000d4        0x0 ./lwip/src/apps/snmp/snmpv3_mbedtls.o
 .bss           0x200000d4        0x0 ./lwip/src/apps/sntp/sntp.o
 .bss           0x200000d4        0x0 ./lwip/src/apps/tftp/tftp_server.o
 .bss           0x200000d4        0x0 ./lwip/src/core/def.o
 .bss           0x200000d4        0x0 ./lwip/src/core/dns.o
 .bss           0x200000d4        0x0 ./lwip/src/core/inet_chksum.o
 .bss           0x200000d4        0x0 ./lwip/src/core/init.o
 .bss           0x200000d4        0x0 ./lwip/src/core/ip.o
 .bss           0x200000d4        0x0 ./lwip/src/core/mem.o
 .bss           0x200000d4        0x0 ./lwip/src/core/memp.o
 .bss           0x200000d4        0x0 ./lwip/src/core/netif.o
 .bss           0x200000d4        0x0 ./lwip/src/core/pbuf.o
 .bss           0x200000d4        0x0 ./lwip/src/core/raw.o
 .bss           0x200000d4        0x0 ./lwip/src/core/stats.o
 .bss           0x200000d4        0x0 ./lwip/src/core/sys.o
 .bss           0x200000d4        0x0 ./lwip/src/core/tcp.o
 .bss           0x200000d4        0x0 ./lwip/src/core/tcp_in.o
 .bss           0x200000d4        0x0 ./lwip/src/core/tcp_out.o
 .bss           0x200000d4        0x0 ./lwip/src/core/timeouts.o
 .bss           0x200000d4        0x0 ./lwip/src/core/udp.o
 .bss           0x200000d4        0x0 ./lwip/src/core/ipv4/autoip.o
 .bss           0x200000d4        0x0 ./lwip/src/core/ipv4/dhcp.o
 .bss           0x200000d4        0x0 ./lwip/src/core/ipv4/etharp.o
 .bss           0x200000d4        0x0 ./lwip/src/core/ipv4/icmp.o
 .bss           0x200000d4        0x0 ./lwip/src/core/ipv4/igmp.o
 .bss           0x200000d4        0x0 ./lwip/src/core/ipv4/ip4.o
 .bss           0x200000d4        0x0 ./lwip/src/core/ipv4/ip4_addr.o
 .bss           0x200000d4        0x0 ./lwip/src/core/ipv4/ip4_frag.o
 .bss           0x200000d4        0x0 ./lwip/src/core/ipv6/dhcp6.o
 .bss           0x200000d4        0x0 ./lwip/src/core/ipv6/ethip6.o
 .bss           0x200000d4        0x0 ./lwip/src/core/ipv6/icmp6.o
 .bss           0x200000d4        0x0 ./lwip/src/core/ipv6/inet6.o
 .bss           0x200000d4        0x0 ./lwip/src/core/ipv6/ip6.o
 .bss           0x200000d4        0x0 ./lwip/src/core/ipv6/ip6_addr.o
 .bss           0x200000d4        0x0 ./lwip/src/core/ipv6/ip6_frag.o
 .bss           0x200000d4        0x0 ./lwip/src/core/ipv6/mld6.o
 .bss           0x200000d4        0x0 ./lwip/src/core/ipv6/nd6.o
 .bss           0x200000d4        0x0 ./lwip/src/netif/ethernet.o
 .bss           0x200000d4        0x0 ./lwip/src/netif/ethernetif.o
 .bss           0x200000d4        0x0 ./lwip/src/netif/lowpan6.o
 .bss           0x200000d4        0x0 ./lwip/src/netif/slipif.o
 .bss           0x200000d4        0x0 ./lwip/src/netif/ppp/auth.o
 .bss           0x200000d4        0x0 ./lwip/src/netif/ppp/ccp.o
 .bss           0x200000d4        0x0 ./lwip/src/netif/ppp/chap-md5.o
 .bss           0x200000d4        0x0 ./lwip/src/netif/ppp/chap-new.o
 .bss           0x200000d4        0x0 ./lwip/src/netif/ppp/chap_ms.o
 .bss           0x200000d4        0x0 ./lwip/src/netif/ppp/demand.o
 .bss           0x200000d4        0x0 ./lwip/src/netif/ppp/eap.o
 .bss           0x200000d4        0x0 ./lwip/src/netif/ppp/ecp.o
 .bss           0x200000d4        0x0 ./lwip/src/netif/ppp/eui64.o
 .bss           0x200000d4        0x0 ./lwip/src/netif/ppp/fsm.o
 .bss           0x200000d4        0x0 ./lwip/src/netif/ppp/ipcp.o
 .bss           0x200000d4        0x0 ./lwip/src/netif/ppp/ipv6cp.o
 .bss           0x200000d4        0x0 ./lwip/src/netif/ppp/lcp.o
 .bss           0x200000d4        0x0 ./lwip/src/netif/ppp/magic.o
 .bss           0x200000d4        0x0 ./lwip/src/netif/ppp/mppe.o
 .bss           0x200000d4        0x0 ./lwip/src/netif/ppp/multilink.o
 .bss           0x200000d4        0x0 ./lwip/src/netif/ppp/ppp.o
 .bss           0x200000d4        0x0 ./lwip/src/netif/ppp/pppapi.o
 .bss           0x200000d4        0x0 ./lwip/src/netif/ppp/pppcrypt.o
 .bss           0x200000d4        0x0 ./lwip/src/netif/ppp/pppoe.o
 .bss           0x200000d4        0x0 ./lwip/src/netif/ppp/pppol2tp.o
 .bss           0x200000d4        0x0 ./lwip/src/netif/ppp/pppos.o
 .bss           0x200000d4        0x0 ./lwip/src/netif/ppp/upap.o
 .bss           0x200000d4        0x0 ./lwip/src/netif/ppp/utils.o
 .bss           0x200000d4        0x0 ./lwip/src/netif/ppp/vj.o
 .bss           0x200000d4        0x0 ./lwip/src/netif/ppp/polarssl/arc4.o
 .bss           0x200000d4        0x0 ./lwip/src/netif/ppp/polarssl/des.o
 .bss           0x200000d4        0x0 ./lwip/src/netif/ppp/polarssl/md4.o
 .bss           0x200000d4        0x0 ./lwip/src/netif/ppp/polarssl/md5.o
 .bss           0x200000d4        0x0 ./lwip/src/netif/ppp/polarssl/sha1.o
 .bss           0x200000d4        0x0 C:/ti/simplelink_msp432e4_sdk_4_20_00_12/source\ti/devices/msp432e4/driverlib/lib/gcc/m4f/msp432e4_driverlib.a(emac.o)
 .bss           0x200000d4        0x0 C:/ti/simplelink_msp432e4_sdk_4_20_00_12/source\ti/devices/msp432e4/driverlib/lib/gcc/m4f/msp432e4_driverlib.a(flash.o)
 .bss           0x200000d4        0x0 C:/ti/simplelink_msp432e4_sdk_4_20_00_12/source\ti/devices/msp432e4/driverlib/lib/gcc/m4f/msp432e4_driverlib.a(gpio.o)
 .bss           0x200000d4        0x0 C:/ti/simplelink_msp432e4_sdk_4_20_00_12/source\ti/devices/msp432e4/driverlib/lib/gcc/m4f/msp432e4_driverlib.a(interrupt.o)
 .bss           0x200000d4        0x0 C:/ti/simplelink_msp432e4_sdk_4_20_00_12/source\ti/devices/msp432e4/driverlib/lib/gcc/m4f/msp432e4_driverlib.a(sw_crc.o)
 .bss           0x200000d4        0x0 C:/ti/simplelink_msp432e4_sdk_4_20_00_12/source\ti/devices/msp432e4/driverlib/lib/gcc/m4f/msp432e4_driverlib.a(sysctl.o)
 .bss           0x200000d4        0x0 C:/ti/simplelink_msp432e4_sdk_4_20_00_12/source\ti/devices/msp432e4/driverlib/lib/gcc/m4f/msp432e4_driverlib.a(systick.o)
 .bss           0x200000d4        0x0 C:/ti/simplelink_msp432e4_sdk_4_20_00_12/source\ti/devices/msp432e4/driverlib/lib/gcc/m4f/msp432e4_driverlib.a(cpu.o)
 .bss           0x200000d4        0x0 c:/ti/gcc_arm_none_eabi_9_2_1/bin/../lib/gcc/arm-none-eabi/9.2.1/thumb/v7e-m+fp/hard\libgcc.a(_aeabi_ldivmod.o)
 .bss           0x200000d4        0x0 c:/ti/gcc_arm_none_eabi_9_2_1/bin/../lib/gcc/arm-none-eabi/9.2.1/thumb/v7e-m+fp/hard\libgcc.a(_udivmoddi4.o)
 .bss           0x200000d4        0x0 c:/ti/gcc_arm_none_eabi_9_2_1/bin/../lib/gcc/arm-none-eabi/9.2.1/thumb/v7e-m+fp/hard\libgcc.a(_dvmd_tls.o)
 .bss           0x200000d4        0x0 c:/ti/gcc_arm_none_eabi_9_2_1/bin/../lib/gcc/arm-none-eabi/9.2.1/../../../../arm-none-eabi/lib/thumb/v7e-m+fp/hard\libc_nano.a(lib_a-exit.o)
 .bss           0x200000d4        0x0 c:/ti/gcc_arm_none_eabi_9_2_1/bin/../lib/gcc/arm-none-eabi/9.2.1/../../../../arm-none-eabi/lib/thumb/v7e-m+fp/hard\libc_nano.a(lib_a-impure.o)
 .bss           0x200000d4        0x0 c:/ti/gcc_arm_none_eabi_9_2_1/bin/../lib/gcc/arm-none-eabi/9.2.1/../../../../arm-none-eabi/lib/thumb/v7e-m+fp/hard\libc_nano.a(lib_a-init.o)
 .bss           0x200000d4        0x0 c:/ti/gcc_arm_none_eabi_9_2_1/bin/../lib/gcc/arm-none-eabi/9.2.1/../../../../arm-none-eabi/lib/thumb/v7e-m+fp/hard\libc_nano.a(lib_a-malloc.o)
 .bss           0x200000d4        0x0 c:/ti/gcc_arm_none_eabi_9_2_1/bin/../lib/gcc/arm-none-eabi/9.2.1/../../../../arm-none-eabi/lib/thumb/v7e-m+fp/hard\libc_nano.a(lib_a-memcmp.o)
 .bss           0x200000d4        0x0 c:/ti/gcc_arm_none_eabi_9_2_1/bin/../lib/gcc/arm-none-eabi/9.2.1/../../../../arm-none-eabi/lib/thumb/v7e-m+fp/hard\libc_nano.a(lib_a-memcpy-stub.o)
 .bss           0x200000d4        0x0 c:/ti/gcc_arm_none_eabi_9_2_1/bin/../lib/gcc/arm-none-eabi/9.2.1/../../../../arm-none-eabi/lib/thumb/v7e-m+fp/hard\libc_nano.a(lib_a-memset.o)
 .bss           0x200000d4        0x0 c:/ti/gcc_arm_none_eabi_9_2_1/bin/../lib/gcc/arm-none-eabi/9.2.1/../../../../arm-none-eabi/lib/thumb/v7e-m+fp/hard\libc_nano.a(lib_a-nano-freer.o)
 .bss           0x200000d4        0x0 c:/ti/gcc_arm_none_eabi_9_2_1/bin/../lib/gcc/arm-none-eabi/9.2.1/../../../../arm-none-eabi/lib/thumb/v7e-m+fp/hard\libc_nano.a(lib_a-nano-mallocr.o)
 .bss           0x200000d4        0x0 c:/ti/gcc_arm_none_eabi_9_2_1/bin/../lib/gcc/arm-none-eabi/9.2.1/../../../../arm-none-eabi/lib/thumb/v7e-m+fp/hard\libc_nano.a(lib_a-rand.o)
 .bss           0x200000d4        0x0 c:/ti/gcc_arm_none_eabi_9_2_1/bin/../lib/gcc/arm-none-eabi/9.2.1/../../../../arm-none-eabi/lib/thumb/v7e-m+fp/hard\libc_nano.a(lib_a-sbrkr.o)
 .bss           0x200000d4        0x0 c:/ti/gcc_arm_none_eabi_9_2_1/bin/../lib/gcc/arm-none-eabi/9.2.1/../../../../arm-none-eabi/lib/thumb/v7e-m+fp/hard\libc_nano.a(lib_a-strchr.o)
 .bss           0x200000d4        0x0 c:/ti/gcc_arm_none_eabi_9_2_1/bin/../lib/gcc/arm-none-eabi/9.2.1/../../../../arm-none-eabi/lib/thumb/v7e-m+fp/hard\libc_nano.a(lib_a-strcmp.o)
 .bss           0x200000d4        0x0 c:/ti/gcc_arm_none_eabi_9_2_1/bin/../lib/gcc/arm-none-eabi/9.2.1/../../../../arm-none-eabi/lib/thumb/v7e-m+fp/hard\libc_nano.a(lib_a-strlen.o)
 .bss           0x200000d4        0x0 c:/ti/gcc_arm_none_eabi_9_2_1/bin/../lib/gcc/arm-none-eabi/9.2.1/../../../../arm-none-eabi/lib/thumb/v7e-m+fp/hard\libc_nano.a(lib_a-strncmp.o)
 .bss           0x200000d4        0x0 c:/ti/gcc_arm_none_eabi_9_2_1/bin/../lib/gcc/arm-none-eabi/9.2.1/../../../../arm-none-eabi/lib/thumb/v7e-m+fp/hard\libc_nano.a(lib_a-strstr.o)
 .bss           0x200000d4        0x0 c:/ti/gcc_arm_none_eabi_9_2_1/bin/../lib/gcc/arm-none-eabi/9.2.1/../../../../arm-none-eabi/lib/thumb/v7e-m+fp/hard\libc_nano.a(lib_a-mlock.o)
 .bss           0x200000d4        0x0 c:/ti/gcc_arm_none_eabi_9_2_1/bin/../lib/gcc/arm-none-eabi/9.2.1/../../../../arm-none-eabi/lib/thumb/v7e-m+fp/hard\libc_nano.a(lib_a-reent.o)
 .bss           0x200000d4        0x0 c:/ti/gcc_arm_none_eabi_9_2_1/bin/../lib/gcc/arm-none-eabi/9.2.1/../../../../arm-none-eabi/lib/thumb/v7e-m+fp/hard\libc_nano.a(lib_a-lock.o)
 .bss           0x200000d4        0x0 c:/ti/gcc_arm_none_eabi_9_2_1/bin/../lib/gcc/arm-none-eabi/9.2.1/../../../../arm-none-eabi/lib/thumb/v7e-m+fp/hard\libnosys.a(sbrk.o)
 .bss           0x200000d4        0x0 c:/ti/gcc_arm_none_eabi_9_2_1/bin/../lib/gcc/arm-none-eabi/9.2.1/../../../../arm-none-eabi/lib/thumb/v7e-m+fp/hard\libnosys.a(_exit.o)
 .bss           0x200000d4        0x0 c:/ti/gcc_arm_none_eabi_9_2_1/bin/../lib/gcc/arm-none-eabi/9.2.1/thumb/v7e-m+fp/hard/crtend.o
 .bss           0x200000d4        0x0 c:/ti/gcc_arm_none_eabi_9_2_1/bin/../lib/gcc/arm-none-eabi/9.2.1/thumb/v7e-m+fp/hard/crtn.o
 *(.bss.*)
 .bss.g_ulFlags
                0x200000d4        0x4 ./enet_io.o
 .bss.thread1   0x200000d8       0x44 ./enet_io.o
 *fill*         0x2000011c        0x4 
 .bss.thread1stack
                0x20000120     0x2000 ./enet_io.o
 .bss.thread2   0x20002120       0x44 ./enet_io.o
 *fill*         0x20002164        0x4 
 .bss.thread2stack
                0x20002168     0x2000 ./enet_io.o
 .bss.thread3   0x20004168       0x44 ./enet_io.o
 *fill*         0x200041ac        0x4 
 .bss.thread3stack
                0x200041b0     0x2000 ./enet_io.o
 .bss.mutex1    0x200061b0       0x20 ./enet_io.o
 .bss.flag      0x200061d0        0x4 ./enet_io.o
                0x200061d0                flag
 .bss.pcBuf.11899
                0x200061d4        0x7 ./io_fs.o
 *fill*         0x200061db        0x1 
 .bss.g_ui32Base
                0x200061dc        0x4 ./uartstdio.o
 .bss.astTasksArr
                0x200061e0       0xf0 ./Kernal/kernal/PeridicTask.o
                0x200061e0                astTasksArr
 .bss.AvailableIds
                0x200062d0        0x4 ./Kernal/kernal/PeridicTask.o
                0x200062d0                AvailableIds
 .bss.idleThread
                0x200062d4       0x44 ./Kernal/kernal/SquadRTOS.o
 .bss.idleThreadStack
                0x20006318     0x2000 ./Kernal/kernal/SquadRTOS.o
 .bss.NumberOfTicksForExternalInt
                0x20008318      0x1bc ./Kernal/kernal/SquadRTOS.o
 .bss.bScedular
                0x200084d4        0x1 ./Kernal/kernal/SquadRTOS.o
 *fill*         0x200084d5        0x3 
 .bss.astReadyList
                0x200084d8      0x1c0 ./Kernal/kernal/thread.o
 .bss.astWaitingList
                0x20008698       0x1c ./Kernal/kernal/thread.o
 .bss.astSuspended
                0x200086b4       0x1c ./Kernal/kernal/thread.o
 .bss.pstRunningThread
                0x200086d0        0x4 ./Kernal/kernal/thread.o
 .bss.u32numOfThreads
                0x200086d4        0x4 ./Kernal/kernal/thread.o
 .bss.runningThreadID
                0x200086d8        0x4 ./Kernal/kernal/thread.o
 .bss.u32NumberOfSysTicks
                0x200086dc        0x4 ./Kernal/kernal/thread.o
 .bss.pBuf.11535
                0x200086e0        0x4 ./lwip/ports/msp432e4/netif/msp432e4if.o
 .bss.g_pui8LocatorData
                0x200086e4       0x54 ./lwip/ports/msp432e4/utils/locator.o
 .bss.g_sNetIF  0x20008738       0x38 ./lwip/ports/msp432e4/utils/lwiplib.o
 .bss.g_ui32LocalTimer
                0x20008770        0x4 ./lwip/ports/msp432e4/utils/lwiplib.o
                0x20008770                g_ui32LocalTimer
 .bss.g_ui32TCPTimer
                0x20008774        0x4 ./lwip/ports/msp432e4/utils/lwiplib.o
 .bss.g_ui32HostTimer
                0x20008778        0x4 ./lwip/ports/msp432e4/utils/lwiplib.o
 .bss.g_ui32ARPTimer
                0x2000877c        0x4 ./lwip/ports/msp432e4/utils/lwiplib.o
 .bss.g_ui32AutoIPTimer
                0x20008780        0x4 ./lwip/ports/msp432e4/utils/lwiplib.o
 .bss.g_ui32DHCPCoarseTimer
                0x20008784        0x4 ./lwip/ports/msp432e4/utils/lwiplib.o
 .bss.g_ui32DHCPFineTimer
                0x20008788        0x4 ./lwip/ports/msp432e4/utils/lwiplib.o
 .bss.g_ui32DNSTimer
                0x2000878c        0x4 ./lwip/ports/msp432e4/utils/lwiplib.o
 .bss.g_ui32LinkTimer
                0x20008790        0x4 ./lwip/ports/msp432e4/utils/lwiplib.o
 .bss.g_ui32IPMode
                0x20008794        0x4 ./lwip/ports/msp432e4/utils/lwiplib.o
 .bss.g_bLinkActive
                0x20008798        0x1 ./lwip/ports/msp432e4/utils/lwiplib.o
 *fill*         0x20008799        0x3 
 .bss.g_ui32IPAddr
                0x2000879c        0x4 ./lwip/ports/msp432e4/utils/lwiplib.o
 .bss.g_ui32NetMask
                0x200087a0        0x4 ./lwip/ports/msp432e4/utils/lwiplib.o
 .bss.g_ui32GWAddr
                0x200087a4        0x4 ./lwip/ports/msp432e4/utils/lwiplib.o
 .bss.httpd_req_buf
                0x200087a8      0x400 ./lwip/src/apps/httpd/httpd.o
 .bss.http_uri_buf
                0x20008ba8       0x40 ./lwip/src/apps/httpd/httpd.o
 .bss.dns_pcbs  0x20008be8       0x10 ./lwip/src/core/dns.o
 .bss.dns_table
                0x20008bf8      0x440 ./lwip/src/core/dns.o
 .bss.dns_requests
                0x20009038       0x30 ./lwip/src/core/dns.o
 .bss.dns_servers
                0x20009068        0x8 ./lwip/src/core/dns.o
 .bss.ram       0x20009070        0x4 ./lwip/src/core/mem.o
 .bss.ram_end   0x20009074        0x4 ./lwip/src/core/mem.o
 .bss.lfree     0x20009078        0x4 ./lwip/src/core/mem.o
 .bss.memp_stats_UDP_PCB
                0x2000907c        0xa ./lwip/src/core/memp.o
 *fill*         0x20009086        0x2 
 .bss.memp_tab_UDP_PCB
                0x20009088        0x4 ./lwip/src/core/memp.o
 .bss.memp_stats_TCP_PCB
                0x2000908c        0xa ./lwip/src/core/memp.o
 *fill*         0x20009096        0x2 
 .bss.memp_tab_TCP_PCB
                0x20009098        0x4 ./lwip/src/core/memp.o
 .bss.memp_stats_TCP_PCB_LISTEN
                0x2000909c        0xa ./lwip/src/core/memp.o
 *fill*         0x200090a6        0x2 
 .bss.memp_tab_TCP_PCB_LISTEN
                0x200090a8        0x4 ./lwip/src/core/memp.o
 .bss.memp_stats_TCP_SEG
                0x200090ac        0xa ./lwip/src/core/memp.o
 *fill*         0x200090b6        0x2 
 .bss.memp_tab_TCP_SEG
                0x200090b8        0x4 ./lwip/src/core/memp.o
 .bss.memp_stats_SYS_TIMEOUT
                0x200090bc        0xa ./lwip/src/core/memp.o
 *fill*         0x200090c6        0x2 
 .bss.memp_tab_SYS_TIMEOUT
                0x200090c8        0x4 ./lwip/src/core/memp.o
 .bss.memp_stats_PBUF
                0x200090cc        0xa ./lwip/src/core/memp.o
 *fill*         0x200090d6        0x2 
 .bss.memp_tab_PBUF
                0x200090d8        0x4 ./lwip/src/core/memp.o
 .bss.memp_stats_PBUF_POOL
                0x200090dc        0xa ./lwip/src/core/memp.o
 *fill*         0x200090e6        0x2 
 .bss.memp_tab_PBUF_POOL
                0x200090e8        0x4 ./lwip/src/core/memp.o
 .bss.netif_num
                0x200090ec        0x1 ./lwip/src/core/netif.o
 .bss.tcp_timer
                0x200090ed        0x1 ./lwip/src/core/tcp.o
 .bss.tcp_timer_ctr
                0x200090ee        0x1 ./lwip/src/core/tcp.o
 *fill*         0x200090ef        0x1 
 .bss.inseg     0x200090f0       0x10 ./lwip/src/core/tcp_in.o
 .bss.tcphdr    0x20009100        0x4 ./lwip/src/core/tcp_in.o
 .bss.tcphdr_optlen
                0x20009104        0x2 ./lwip/src/core/tcp_in.o
 .bss.tcphdr_opt1len
                0x20009106        0x2 ./lwip/src/core/tcp_in.o
 .bss.tcphdr_opt2
                0x20009108        0x4 ./lwip/src/core/tcp_in.o
 .bss.tcp_optidx
                0x2000910c        0x2 ./lwip/src/core/tcp_in.o
 *fill*         0x2000910e        0x2 
 .bss.seqno     0x20009110        0x4 ./lwip/src/core/tcp_in.o
 .bss.ackno     0x20009114        0x4 ./lwip/src/core/tcp_in.o
 .bss.recv_acked
                0x20009118        0x2 ./lwip/src/core/tcp_in.o
 .bss.tcplen    0x2000911a        0x2 ./lwip/src/core/tcp_in.o
 .bss.flags     0x2000911c        0x1 ./lwip/src/core/tcp_in.o
 .bss.recv_flags
                0x2000911d        0x1 ./lwip/src/core/tcp_in.o
 *fill*         0x2000911e        0x2 
 .bss.recv_data
                0x20009120        0x4 ./lwip/src/core/tcp_in.o
 .bss.next_timeout
                0x20009124        0x4 ./lwip/src/core/timeouts.o
 .bss.timeouts_last_time
                0x20009128        0x4 ./lwip/src/core/timeouts.o
 .bss.tcpip_tcp_timer_active
                0x2000912c        0x4 ./lwip/src/core/timeouts.o
 .bss.dhcp_pcb  0x20009130        0x4 ./lwip/src/core/ipv4/dhcp.o
 .bss.dhcp_pcb_refcount
                0x20009134        0x1 ./lwip/src/core/ipv4/dhcp.o
 *fill*         0x20009135        0x3 
 .bss.xid.7063  0x20009138        0x4 ./lwip/src/core/ipv4/dhcp.o
 .bss.arp_table
                0x2000913c       0xf0 ./lwip/src/core/ipv4/etharp.o
 .bss.etharp_cached_entry
                0x2000922c        0x1 ./lwip/src/core/ipv4/etharp.o
 *fill*         0x2000922d        0x1 
 .bss.ip_id     0x2000922e        0x2 ./lwip/src/core/ipv4/ip4.o
 .bss.__malloc_free_list
                0x20009230        0x4 c:/ti/gcc_arm_none_eabi_9_2_1/bin/../lib/gcc/arm-none-eabi/9.2.1/../../../../arm-none-eabi/lib/thumb/v7e-m+fp/hard\libc_nano.a(lib_a-nano-mallocr.o)
                0x20009230                __malloc_free_list
 .bss.__malloc_sbrk_start
                0x20009234        0x4 c:/ti/gcc_arm_none_eabi_9_2_1/bin/../lib/gcc/arm-none-eabi/9.2.1/../../../../arm-none-eabi/lib/thumb/v7e-m+fp/hard\libc_nano.a(lib_a-nano-mallocr.o)
                0x20009234                __malloc_sbrk_start
 .bss.heap_end.5507
                0x20009238        0x4 c:/ti/gcc_arm_none_eabi_9_2_1/bin/../lib/gcc/arm-none-eabi/9.2.1/../../../../arm-none-eabi/lib/thumb/v7e-m+fp/hard\libnosys.a(sbrk.o)
 *(COMMON)
 COMMON         0x2000923c       0x4c ./enet_io.o
                0x2000923c                netif
                0x20009274                g_ui32IPAddress
                0x20009278                ipaddr
                0x2000927c                netmask
                0x20009280                gw
                0x20009284                g_ui32SysClock
 COMMON         0x20009288        0x4 ./Kernal/kernal/PeridicTask.o
                0x20009288                CurrentId
 COMMON         0x2000928c        0x4 ./Kernal/kernal/SquadRTOS.o
                0x2000928c                svcEXEReturn
 COMMON         0x20009290      0x274 ./lwip/ports/msp432e4/netif/msp432e4if.o
                0x20009290                g_sDriverStats
                0x200092bc                g_pTxDescriptors
                0x200093dc                g_pRxDescriptors
                0x200094fc                g_ui32AbnormalInts
                0x20009500                g_ui32NormalInts
 COMMON         0x20009504        0x4 ./lwip/ports/msp432e4/utils/lwiplib.o
                0x20009504                g_pfnTimerHandler
 COMMON         0x20009508       0x18 ./lwip/src/apps/httpd/httpd.o
                0x20009508                g_iNumCGIs
                0x2000950c                g_pfnSSIHandler
                0x20009510                http_cgi_paramcount
                0x20009514                g_iNumTags
                0x20009518                g_pCGIs
                0x2000951c                g_ppcTags
 COMMON         0x20009520       0x18 ./lwip/src/core/ip.o
                0x20009520                ip_data
 COMMON         0x20009538     0x8013 ./lwip/src/core/mem.o
                0x20009538                ram_heap
 *fill*         0x2001154b        0x1 
 COMMON         0x2001154c     0x2e5b ./lwip/src/core/memp.o
                0x2001154c                memp_memory_TCP_SEG_base
                0x20011650                memp_memory_PBUF_POOL_base
                0x20013754                memp_memory_PBUF_base
                0x20013858                memp_memory_TCP_PCB_LISTEN_base
                0x2001393c                memp_memory_UDP_PCB_base
                0x200139c0                memp_memory_TCP_PCB_base
                0x20014344                memp_memory_SYS_TIMEOUT_base
 *fill*         0x200143a7        0x1 
 COMMON         0x200143a8        0x8 ./lwip/src/core/netif.o
                0x200143a8                netif_list
                0x200143ac                netif_default
 COMMON         0x200143b0        0x1 ./lwip/src/core/pbuf.o
                0x200143b0                pbuf_free_ooseq_pending
 *fill*         0x200143b1        0x3 
 COMMON         0x200143b4       0xb8 ./lwip/src/core/stats.o
                0x200143b4                lwip_stats
 COMMON         0x2001446c       0x18 ./lwip/src/core/tcp.o
                0x2001446c                tcp_active_pcbs_changed
                0x20014470                tcp_active_pcbs
                0x20014474                tcp_ticks
                0x20014478                tcp_listen_pcbs
                0x2001447c                tcp_bound_pcbs
                0x20014480                tcp_tw_pcbs
 COMMON         0x20014484        0x4 ./lwip/src/core/tcp_in.o
                0x20014484                tcp_input_pcb
 COMMON         0x20014488        0x4 ./lwip/src/core/udp.o
                0x20014488                udp_pcbs
 COMMON         0x2001448c       0x34 ./lwip/src/core/ipv4/dhcp.o
                0x2001448c                dhcp_rx_options_given
                0x20014498                dhcp_rx_options_val
 COMMON         0x200144c0        0x4 c:/ti/gcc_arm_none_eabi_9_2_1/bin/../lib/gcc/arm-none-eabi/9.2.1/../../../../arm-none-eabi/lib/thumb/v7e-m+fp/hard\libc_nano.a(lib_a-reent.o)
                0x200144c0                errno
 COMMON         0x200144c4        0x9 c:/ti/gcc_arm_none_eabi_9_2_1/bin/../lib/gcc/arm-none-eabi/9.2.1/../../../../arm-none-eabi/lib/thumb/v7e-m+fp/hard\libc_nano.a(lib_a-lock.o)
                0x200144c4                __lock___atexit_recursive_mutex
                0x200144c5                __lock___arc4random_mutex
                0x200144c6                __lock___env_recursive_mutex
                0x200144c7                __lock___sinit_recursive_mutex
                0x200144c8                __lock___malloc_recursive_mutex
                0x200144c9                __lock___at_quick_exit_mutex
                0x200144ca                __lock___dd_hash_mutex
                0x200144cb                __lock___tz_mutex
                0x200144cc                __lock___sfp_recursive_mutex
                0x200144d0                . = ALIGN (0x4)
 *fill*         0x200144cd        0x3 
                0x200144d0                __bss_end__ = .

.heap           0x200144d0        0x0
                0x200144d0                __heap_start__ = .
                0x200144d0                end = __heap_start__
                0x200144d0                _end = end
                0x200144d0                __end = end
 *(.heap)
                0x200144d0                __heap_end__ = .
                0x200144d0                __HeapLimit = __heap_end__

.stack          0x200144d0        0x0
                0x200144d0                _stack = .
 *(.stack)
                0x20040000                __StackTop = (ORIGIN (REGION_STACK) + LENGTH (REGION_STACK))
                0x20040000                PROVIDE (__stack = __StackTop)
LOAD C:/ti/simplelink_msp432e4_sdk_4_20_00_12/source\ti/display/lib/display.am4fg
LOAD C:/ti/simplelink_msp432e4_sdk_4_20_00_12/source\ti/grlib/lib/gcc/m4f/grlib.a
LOAD C:/ti/simplelink_msp432e4_sdk_4_20_00_12/source\third_party/spiffs/lib/gcc/m4f/spiffs.a
LOAD C:/ti/simplelink_msp432e4_sdk_4_20_00_12/source\ti/drivers/lib/drivers_msp432e4.am4fg
LOAD C:/ti/simplelink_msp432e4_sdk_4_20_00_12/source\third_party/fatfs/lib/gcc/m4f/fatfs.a
LOAD C:/ti/simplelink_msp432e4_sdk_4_20_00_12/source\ti/devices/msp432e4/driverlib/lib/gcc/m4f/msp432e4_driverlib.a
LOAD c:/ti/gcc_arm_none_eabi_9_2_1/bin/../lib/gcc/arm-none-eabi/9.2.1/thumb/v7e-m+fp/hard\libgcc.a
LOAD c:/ti/gcc_arm_none_eabi_9_2_1/bin/../lib/gcc/arm-none-eabi/9.2.1/../../../../arm-none-eabi/lib/thumb/v7e-m+fp/hard\libc_nano.a
LOAD c:/ti/gcc_arm_none_eabi_9_2_1/bin/../lib/gcc/arm-none-eabi/9.2.1/../../../../arm-none-eabi/lib/thumb/v7e-m+fp/hard\libm.a
LOAD c:/ti/gcc_arm_none_eabi_9_2_1/bin/../lib/gcc/arm-none-eabi/9.2.1/../../../../arm-none-eabi/lib/thumb/v7e-m+fp/hard\libnosys.a
START GROUP
LOAD c:/ti/gcc_arm_none_eabi_9_2_1/bin/../lib/gcc/arm-none-eabi/9.2.1/thumb/v7e-m+fp/hard\libgcc.a
LOAD c:/ti/gcc_arm_none_eabi_9_2_1/bin/../lib/gcc/arm-none-eabi/9.2.1/../../../../arm-none-eabi/lib/thumb/v7e-m+fp/hard\libg_nano.a
LOAD c:/ti/gcc_arm_none_eabi_9_2_1/bin/../lib/gcc/arm-none-eabi/9.2.1/../../../../arm-none-eabi/lib/thumb/v7e-m+fp/hard\libc_nano.a
END GROUP
START GROUP
LOAD c:/ti/gcc_arm_none_eabi_9_2_1/bin/../lib/gcc/arm-none-eabi/9.2.1/thumb/v7e-m+fp/hard\libgcc.a
LOAD c:/ti/gcc_arm_none_eabi_9_2_1/bin/../lib/gcc/arm-none-eabi/9.2.1/../../../../arm-none-eabi/lib/thumb/v7e-m+fp/hard\libc_nano.a
END GROUP
LOAD c:/ti/gcc_arm_none_eabi_9_2_1/bin/../lib/gcc/arm-none-eabi/9.2.1/thumb/v7e-m+fp/hard/crtend.o
LOAD c:/ti/gcc_arm_none_eabi_9_2_1/bin/../lib/gcc/arm-none-eabi/9.2.1/thumb/v7e-m+fp/hard/crtn.o
OUTPUT(ethernet-based_io_control_MSP_EXP432E401Y_nortos_gcc.out elf32-littlearm)

.ARM.attributes
                0x00000000       0x30
 .ARM.attributes
                0x00000000       0x1e c:/ti/gcc_arm_none_eabi_9_2_1/bin/../lib/gcc/arm-none-eabi/9.2.1/thumb/v7e-m+fp/hard/crti.o
 .ARM.attributes
                0x0000001e       0x34 c:/ti/gcc_arm_none_eabi_9_2_1/bin/../lib/gcc/arm-none-eabi/9.2.1/thumb/v7e-m+fp/hard/crtbegin.o
 .ARM.attributes
                0x00000052       0x1c c:/ti/gcc_arm_none_eabi_9_2_1/bin/../lib/gcc/arm-none-eabi/9.2.1/../../../../arm-none-eabi/lib/thumb/v7e-m+fp/hard/crt0.o
 .ARM.attributes
                0x0000006e       0x34 ./RTE.o
 .ARM.attributes
                0x000000a2       0x34 ./cgifuncs.o
 .ARM.attributes
                0x000000d6       0x34 ./enet_io.o
 .ARM.attributes
                0x0000010a       0x34 ./io.o
 .ARM.attributes
                0x0000013e       0x34 ./io_fs.o
 .ARM.attributes
                0x00000172       0x34 ./pinout.o
 .ARM.attributes
                0x000001a6       0x34 ./system_msp432e401y.o
 .ARM.attributes
                0x000001da       0x34 ./uartstdio.o
 .ARM.attributes
                0x0000020e       0x34 ./ustdlib.o
 .ARM.attributes
                0x00000242       0x34 ./Kernal/kernal/List.o
 .ARM.attributes
                0x00000276       0x34 ./Kernal/kernal/Mutex.o
 .ARM.attributes
                0x000002aa       0x34 ./Kernal/kernal/PeridicTask.o
 .ARM.attributes
                0x000002de       0x34 ./Kernal/kernal/SquadRTOS.o
 .ARM.attributes
                0x00000312       0x25 ./Kernal/kernal/SquadRTOS_Handlers.o
 .ARM.attributes
                0x00000337       0x25 ./Kernal/kernal/SquadRTOS_Systemcall.o
 .ARM.attributes
                0x0000035c       0x39 ./Kernal/kernal/kenal.o
 .ARM.attributes
                0x00000395       0x34 ./Kernal/kernal/mailBox.o
 .ARM.attributes
                0x000003c9       0x34 ./Kernal/kernal/queue.o
 .ARM.attributes
                0x000003fd       0x34 ./Kernal/kernal/thread.o
 .ARM.attributes
                0x00000431       0x34 ./gcc/startup_msp432e401y_gcc.o
 .ARM.attributes
                0x00000465       0x34 ./lwip/ports/msp432e4/netif/msp432e4if.o
 .ARM.attributes
                0x00000499       0x34 ./lwip/ports/msp432e4/perf.o
 .ARM.attributes
                0x000004cd       0x34 ./lwip/ports/msp432e4/sys_arch.o
 .ARM.attributes
                0x00000501       0x34 ./lwip/ports/msp432e4/utils/locator.o
 .ARM.attributes
                0x00000535       0x34 ./lwip/ports/msp432e4/utils/lwiplib.o
 .ARM.attributes
                0x00000569       0x34 ./lwip/ports/msp432e4/utils/swupdate.o
 .ARM.attributes
                0x0000059d       0x39 ./lwip/src/api/api_lib.o
 .ARM.attributes
                0x000005d6       0x39 ./lwip/src/api/api_msg.o
 .ARM.attributes
                0x0000060f       0x39 ./lwip/src/api/err.o
 .ARM.attributes
                0x00000648       0x39 ./lwip/src/api/netbuf.o
 .ARM.attributes
                0x00000681       0x39 ./lwip/src/api/netdb.o
 .ARM.attributes
                0x000006ba       0x39 ./lwip/src/api/netifapi.o
 .ARM.attributes
                0x000006f3       0x39 ./lwip/src/api/sockets.o
 .ARM.attributes
                0x0000072c       0x39 ./lwip/src/api/tcpip.o
 .ARM.attributes
                0x00000765       0x34 ./lwip/src/apps/httpd/httpd.o
 .ARM.attributes
                0x00000799       0x34 ./lwip/src/apps/lwiperf/lwiperf.o
 .ARM.attributes
                0x000007cd       0x39 ./lwip/src/apps/mdns/mdns.o
 .ARM.attributes
                0x00000806       0x34 ./lwip/src/apps/mqtt/mqtt.o
 .ARM.attributes
                0x0000083a       0x34 ./lwip/src/apps/netbiosns/netbiosns.o
 .ARM.attributes
                0x0000086e       0x39 ./lwip/src/apps/snmp/snmp_asn1.o
 .ARM.attributes
                0x000008a7       0x39 ./lwip/src/apps/snmp/snmp_core.o
 .ARM.attributes
                0x000008e0       0x39 ./lwip/src/apps/snmp/snmp_mib2.o
 .ARM.attributes
                0x00000919       0x39 ./lwip/src/apps/snmp/snmp_mib2_icmp.o
 .ARM.attributes
                0x00000952       0x39 ./lwip/src/apps/snmp/snmp_mib2_interfaces.o
 .ARM.attributes
                0x0000098b       0x39 ./lwip/src/apps/snmp/snmp_mib2_ip.o
 .ARM.attributes
                0x000009c4       0x39 ./lwip/src/apps/snmp/snmp_mib2_snmp.o
 .ARM.attributes
                0x000009fd       0x39 ./lwip/src/apps/snmp/snmp_mib2_system.o
 .ARM.attributes
                0x00000a36       0x39 ./lwip/src/apps/snmp/snmp_mib2_tcp.o
 .ARM.attributes
                0x00000a6f       0x39 ./lwip/src/apps/snmp/snmp_mib2_udp.o
 .ARM.attributes
                0x00000aa8       0x39 ./lwip/src/apps/snmp/snmp_msg.o
 .ARM.attributes
                0x00000ae1       0x39 ./lwip/src/apps/snmp/snmp_netconn.o
 .ARM.attributes
                0x00000b1a       0x39 ./lwip/src/apps/snmp/snmp_pbuf_stream.o
 .ARM.attributes
                0x00000b53       0x39 ./lwip/src/apps/snmp/snmp_raw.o
 .ARM.attributes
                0x00000b8c       0x39 ./lwip/src/apps/snmp/snmp_scalar.o
 .ARM.attributes
                0x00000bc5       0x39 ./lwip/src/apps/snmp/snmp_table.o
 .ARM.attributes
                0x00000bfe       0x39 ./lwip/src/apps/snmp/snmp_threadsync.o
 .ARM.attributes
                0x00000c37       0x39 ./lwip/src/apps/snmp/snmp_traps.o
 .ARM.attributes
                0x00000c70       0x39 ./lwip/src/apps/snmp/snmpv3.o
 .ARM.attributes
                0x00000ca9       0x39 ./lwip/src/apps/snmp/snmpv3_dummy.o
 .ARM.attributes
                0x00000ce2       0x39 ./lwip/src/apps/snmp/snmpv3_mbedtls.o
 .ARM.attributes
                0x00000d1b       0x34 ./lwip/src/apps/sntp/sntp.o
 .ARM.attributes
                0x00000d4f       0x34 ./lwip/src/apps/tftp/tftp_server.o
 .ARM.attributes
                0x00000d83       0x34 ./lwip/src/core/def.o
 .ARM.attributes
                0x00000db7       0x34 ./lwip/src/core/dns.o
 .ARM.attributes
                0x00000deb       0x34 ./lwip/src/core/inet_chksum.o
 .ARM.attributes
                0x00000e1f       0x34 ./lwip/src/core/init.o
 .ARM.attributes
                0x00000e53       0x39 ./lwip/src/core/ip.o
 .ARM.attributes
                0x00000e8c       0x34 ./lwip/src/core/mem.o
 .ARM.attributes
                0x00000ec0       0x34 ./lwip/src/core/memp.o
 .ARM.attributes
                0x00000ef4       0x34 ./lwip/src/core/netif.o
 .ARM.attributes
                0x00000f28       0x34 ./lwip/src/core/pbuf.o
 .ARM.attributes
                0x00000f5c       0x39 ./lwip/src/core/raw.o
 .ARM.attributes
                0x00000f95       0x34 ./lwip/src/core/stats.o
 .ARM.attributes
                0x00000fc9       0x39 ./lwip/src/core/sys.o
 .ARM.attributes
                0x00001002       0x34 ./lwip/src/core/tcp.o
 .ARM.attributes
                0x00001036       0x34 ./lwip/src/core/tcp_in.o
 .ARM.attributes
                0x0000106a       0x34 ./lwip/src/core/tcp_out.o
 .ARM.attributes
                0x0000109e       0x34 ./lwip/src/core/timeouts.o
 .ARM.attributes
                0x000010d2       0x34 ./lwip/src/core/udp.o
 .ARM.attributes
                0x00001106       0x34 ./lwip/src/core/ipv4/autoip.o
 .ARM.attributes
                0x0000113a       0x34 ./lwip/src/core/ipv4/dhcp.o
 .ARM.attributes
                0x0000116e       0x34 ./lwip/src/core/ipv4/etharp.o
 .ARM.attributes
                0x000011a2       0x34 ./lwip/src/core/ipv4/icmp.o
 .ARM.attributes
                0x000011d6       0x39 ./lwip/src/core/ipv4/igmp.o
 .ARM.attributes
                0x0000120f       0x34 ./lwip/src/core/ipv4/ip4.o
 .ARM.attributes
                0x00001243       0x34 ./lwip/src/core/ipv4/ip4_addr.o
 .ARM.attributes
                0x00001277       0x39 ./lwip/src/core/ipv4/ip4_frag.o
 .ARM.attributes
                0x000012b0       0x39 ./lwip/src/core/ipv6/dhcp6.o
 .ARM.attributes
                0x000012e9       0x39 ./lwip/src/core/ipv6/ethip6.o
 .ARM.attributes
                0x00001322       0x39 ./lwip/src/core/ipv6/icmp6.o
 .ARM.attributes
                0x0000135b       0x39 ./lwip/src/core/ipv6/inet6.o
 .ARM.attributes
                0x00001394       0x39 ./lwip/src/core/ipv6/ip6.o
 .ARM.attributes
                0x000013cd       0x39 ./lwip/src/core/ipv6/ip6_addr.o
 .ARM.attributes
                0x00001406       0x39 ./lwip/src/core/ipv6/ip6_frag.o
 .ARM.attributes
                0x0000143f       0x39 ./lwip/src/core/ipv6/mld6.o
 .ARM.attributes
                0x00001478       0x39 ./lwip/src/core/ipv6/nd6.o
 .ARM.attributes
                0x000014b1       0x34 ./lwip/src/netif/ethernet.o
 .ARM.attributes
                0x000014e5       0x39 ./lwip/src/netif/ethernetif.o
 .ARM.attributes
                0x0000151e       0x39 ./lwip/src/netif/lowpan6.o
 .ARM.attributes
                0x00001557       0x34 ./lwip/src/netif/slipif.o
 .ARM.attributes
                0x0000158b       0x39 ./lwip/src/netif/ppp/auth.o
 .ARM.attributes
                0x000015c4       0x39 ./lwip/src/netif/ppp/ccp.o
 .ARM.attributes
                0x000015fd       0x39 ./lwip/src/netif/ppp/chap-md5.o
 .ARM.attributes
                0x00001636       0x39 ./lwip/src/netif/ppp/chap-new.o
 .ARM.attributes
                0x0000166f       0x39 ./lwip/src/netif/ppp/chap_ms.o
 .ARM.attributes
                0x000016a8       0x39 ./lwip/src/netif/ppp/demand.o
 .ARM.attributes
                0x000016e1       0x39 ./lwip/src/netif/ppp/eap.o
 .ARM.attributes
                0x0000171a       0x39 ./lwip/src/netif/ppp/ecp.o
 .ARM.attributes
                0x00001753       0x39 ./lwip/src/netif/ppp/eui64.o
 .ARM.attributes
                0x0000178c       0x39 ./lwip/src/netif/ppp/fsm.o
 .ARM.attributes
                0x000017c5       0x39 ./lwip/src/netif/ppp/ipcp.o
 .ARM.attributes
                0x000017fe       0x39 ./lwip/src/netif/ppp/ipv6cp.o
 .ARM.attributes
                0x00001837       0x39 ./lwip/src/netif/ppp/lcp.o
 .ARM.attributes
                0x00001870       0x39 ./lwip/src/netif/ppp/magic.o
 .ARM.attributes
                0x000018a9       0x39 ./lwip/src/netif/ppp/mppe.o
 .ARM.attributes
                0x000018e2       0x39 ./lwip/src/netif/ppp/multilink.o
 .ARM.attributes
                0x0000191b       0x39 ./lwip/src/netif/ppp/ppp.o
 .ARM.attributes
                0x00001954       0x39 ./lwip/src/netif/ppp/pppapi.o
 .ARM.attributes
                0x0000198d       0x39 ./lwip/src/netif/ppp/pppcrypt.o
 .ARM.attributes
                0x000019c6       0x39 ./lwip/src/netif/ppp/pppoe.o
 .ARM.attributes
                0x000019ff       0x39 ./lwip/src/netif/ppp/pppol2tp.o
 .ARM.attributes
                0x00001a38       0x39 ./lwip/src/netif/ppp/pppos.o
 .ARM.attributes
                0x00001a71       0x39 ./lwip/src/netif/ppp/upap.o
 .ARM.attributes
                0x00001aaa       0x39 ./lwip/src/netif/ppp/utils.o
 .ARM.attributes
                0x00001ae3       0x39 ./lwip/src/netif/ppp/vj.o
 .ARM.attributes
                0x00001b1c       0x39 ./lwip/src/netif/ppp/polarssl/arc4.o
 .ARM.attributes
                0x00001b55       0x39 ./lwip/src/netif/ppp/polarssl/des.o
 .ARM.attributes
                0x00001b8e       0x39 ./lwip/src/netif/ppp/polarssl/md4.o
 .ARM.attributes
                0x00001bc7       0x39 ./lwip/src/netif/ppp/polarssl/md5.o
 .ARM.attributes
                0x00001c00       0x39 ./lwip/src/netif/ppp/polarssl/sha1.o
 .ARM.attributes
                0x00001c39       0x39 C:/ti/simplelink_msp432e4_sdk_4_20_00_12/source\ti/devices/msp432e4/driverlib/lib/gcc/m4f/msp432e4_driverlib.a(emac.o)
 .ARM.attributes
                0x00001c72       0x39 C:/ti/simplelink_msp432e4_sdk_4_20_00_12/source\ti/devices/msp432e4/driverlib/lib/gcc/m4f/msp432e4_driverlib.a(flash.o)
 .ARM.attributes
                0x00001cab       0x39 C:/ti/simplelink_msp432e4_sdk_4_20_00_12/source\ti/devices/msp432e4/driverlib/lib/gcc/m4f/msp432e4_driverlib.a(gpio.o)
 .ARM.attributes
                0x00001ce4       0x39 C:/ti/simplelink_msp432e4_sdk_4_20_00_12/source\ti/devices/msp432e4/driverlib/lib/gcc/m4f/msp432e4_driverlib.a(interrupt.o)
 .ARM.attributes
                0x00001d1d       0x39 C:/ti/simplelink_msp432e4_sdk_4_20_00_12/source\ti/devices/msp432e4/driverlib/lib/gcc/m4f/msp432e4_driverlib.a(sw_crc.o)
 .ARM.attributes
                0x00001d56       0x39 C:/ti/simplelink_msp432e4_sdk_4_20_00_12/source\ti/devices/msp432e4/driverlib/lib/gcc/m4f/msp432e4_driverlib.a(sysctl.o)
 .ARM.attributes
                0x00001d8f       0x39 C:/ti/simplelink_msp432e4_sdk_4_20_00_12/source\ti/devices/msp432e4/driverlib/lib/gcc/m4f/msp432e4_driverlib.a(systick.o)
 .ARM.attributes
                0x00001dc8       0x39 C:/ti/simplelink_msp432e4_sdk_4_20_00_12/source\ti/devices/msp432e4/driverlib/lib/gcc/m4f/msp432e4_driverlib.a(cpu.o)
 .ARM.attributes
                0x00001e01       0x1e c:/ti/gcc_arm_none_eabi_9_2_1/bin/../lib/gcc/arm-none-eabi/9.2.1/thumb/v7e-m+fp/hard\libgcc.a(_aeabi_ldivmod.o)
 .ARM.attributes
                0x00001e1f       0x34 c:/ti/gcc_arm_none_eabi_9_2_1/bin/../lib/gcc/arm-none-eabi/9.2.1/thumb/v7e-m+fp/hard\libgcc.a(_udivmoddi4.o)
 .ARM.attributes
                0x00001e53       0x1e c:/ti/gcc_arm_none_eabi_9_2_1/bin/../lib/gcc/arm-none-eabi/9.2.1/thumb/v7e-m+fp/hard\libgcc.a(_dvmd_tls.o)
 .ARM.attributes
                0x00001e71       0x34 c:/ti/gcc_arm_none_eabi_9_2_1/bin/../lib/gcc/arm-none-eabi/9.2.1/../../../../arm-none-eabi/lib/thumb/v7e-m+fp/hard\libc_nano.a(lib_a-exit.o)
 .ARM.attributes
                0x00001ea5       0x32 c:/ti/gcc_arm_none_eabi_9_2_1/bin/../lib/gcc/arm-none-eabi/9.2.1/../../../../arm-none-eabi/lib/thumb/v7e-m+fp/hard\libc_nano.a(lib_a-impure.o)
 .ARM.attributes
                0x00001ed7       0x34 c:/ti/gcc_arm_none_eabi_9_2_1/bin/../lib/gcc/arm-none-eabi/9.2.1/../../../../arm-none-eabi/lib/thumb/v7e-m+fp/hard\libc_nano.a(lib_a-init.o)
 .ARM.attributes
                0x00001f0b       0x34 c:/ti/gcc_arm_none_eabi_9_2_1/bin/../lib/gcc/arm-none-eabi/9.2.1/../../../../arm-none-eabi/lib/thumb/v7e-m+fp/hard\libc_nano.a(lib_a-malloc.o)
 .ARM.attributes
                0x00001f3f       0x34 c:/ti/gcc_arm_none_eabi_9_2_1/bin/../lib/gcc/arm-none-eabi/9.2.1/../../../../arm-none-eabi/lib/thumb/v7e-m+fp/hard\libc_nano.a(lib_a-memcmp.o)
 .ARM.attributes
                0x00001f73       0x34 c:/ti/gcc_arm_none_eabi_9_2_1/bin/../lib/gcc/arm-none-eabi/9.2.1/../../../../arm-none-eabi/lib/thumb/v7e-m+fp/hard\libc_nano.a(lib_a-memcpy-stub.o)
 .ARM.attributes
                0x00001fa7       0x34 c:/ti/gcc_arm_none_eabi_9_2_1/bin/../lib/gcc/arm-none-eabi/9.2.1/../../../../arm-none-eabi/lib/thumb/v7e-m+fp/hard\libc_nano.a(lib_a-memset.o)
 .ARM.attributes
                0x00001fdb       0x34 c:/ti/gcc_arm_none_eabi_9_2_1/bin/../lib/gcc/arm-none-eabi/9.2.1/../../../../arm-none-eabi/lib/thumb/v7e-m+fp/hard\libc_nano.a(lib_a-nano-freer.o)
 .ARM.attributes
                0x0000200f       0x34 c:/ti/gcc_arm_none_eabi_9_2_1/bin/../lib/gcc/arm-none-eabi/9.2.1/../../../../arm-none-eabi/lib/thumb/v7e-m+fp/hard\libc_nano.a(lib_a-nano-mallocr.o)
 .ARM.attributes
                0x00002043       0x34 c:/ti/gcc_arm_none_eabi_9_2_1/bin/../lib/gcc/arm-none-eabi/9.2.1/../../../../arm-none-eabi/lib/thumb/v7e-m+fp/hard\libc_nano.a(lib_a-rand.o)
 .ARM.attributes
                0x00002077       0x34 c:/ti/gcc_arm_none_eabi_9_2_1/bin/../lib/gcc/arm-none-eabi/9.2.1/../../../../arm-none-eabi/lib/thumb/v7e-m+fp/hard\libc_nano.a(lib_a-sbrkr.o)
 .ARM.attributes
                0x000020ab       0x34 c:/ti/gcc_arm_none_eabi_9_2_1/bin/../lib/gcc/arm-none-eabi/9.2.1/../../../../arm-none-eabi/lib/thumb/v7e-m+fp/hard\libc_nano.a(lib_a-strchr.o)
 .ARM.attributes
                0x000020df       0x1c c:/ti/gcc_arm_none_eabi_9_2_1/bin/../lib/gcc/arm-none-eabi/9.2.1/../../../../arm-none-eabi/lib/thumb/v7e-m+fp/hard\libc_nano.a(lib_a-strcmp.o)
 .ARM.attributes
                0x000020fb       0x17 c:/ti/gcc_arm_none_eabi_9_2_1/bin/../lib/gcc/arm-none-eabi/9.2.1/../../../../arm-none-eabi/lib/thumb/v7e-m+fp/hard\libc_nano.a(lib_a-strlen.o)
 .ARM.attributes
                0x00002112       0x34 c:/ti/gcc_arm_none_eabi_9_2_1/bin/../lib/gcc/arm-none-eabi/9.2.1/../../../../arm-none-eabi/lib/thumb/v7e-m+fp/hard\libc_nano.a(lib_a-strncmp.o)
 .ARM.attributes
                0x00002146       0x34 c:/ti/gcc_arm_none_eabi_9_2_1/bin/../lib/gcc/arm-none-eabi/9.2.1/../../../../arm-none-eabi/lib/thumb/v7e-m+fp/hard\libc_nano.a(lib_a-strstr.o)
 .ARM.attributes
                0x0000217a       0x34 c:/ti/gcc_arm_none_eabi_9_2_1/bin/../lib/gcc/arm-none-eabi/9.2.1/../../../../arm-none-eabi/lib/thumb/v7e-m+fp/hard\libc_nano.a(lib_a-mlock.o)
 .ARM.attributes
                0x000021ae       0x34 c:/ti/gcc_arm_none_eabi_9_2_1/bin/../lib/gcc/arm-none-eabi/9.2.1/../../../../arm-none-eabi/lib/thumb/v7e-m+fp/hard\libc_nano.a(lib_a-reent.o)
 .ARM.attributes
                0x000021e2       0x34 c:/ti/gcc_arm_none_eabi_9_2_1/bin/../lib/gcc/arm-none-eabi/9.2.1/../../../../arm-none-eabi/lib/thumb/v7e-m+fp/hard\libc_nano.a(lib_a-lock.o)
 .ARM.attributes
                0x00002216       0x34 c:/ti/gcc_arm_none_eabi_9_2_1/bin/../lib/gcc/arm-none-eabi/9.2.1/../../../../arm-none-eabi/lib/thumb/v7e-m+fp/hard\libnosys.a(sbrk.o)
 .ARM.attributes
                0x0000224a       0x34 c:/ti/gcc_arm_none_eabi_9_2_1/bin/../lib/gcc/arm-none-eabi/9.2.1/../../../../arm-none-eabi/lib/thumb/v7e-m+fp/hard\libnosys.a(_exit.o)
 .ARM.attributes
                0x0000227e       0x32 c:/ti/gcc_arm_none_eabi_9_2_1/bin/../lib/gcc/arm-none-eabi/9.2.1/thumb/v7e-m+fp/hard/crtend.o
 .ARM.attributes
                0x000022b0       0x1e c:/ti/gcc_arm_none_eabi_9_2_1/bin/../lib/gcc/arm-none-eabi/9.2.1/thumb/v7e-m+fp/hard/crtn.o

.comment        0x00000000       0xf7
 .comment       0x00000000       0x79 ./RTE.o
                                 0x7a (size before relaxing)
 .comment       0x00000079       0x7a ./cgifuncs.o
 .comment       0x00000079       0x7a ./enet_io.o
 .comment       0x00000079       0x7a ./io.o
 .comment       0x00000079       0x7a ./io_fs.o
 .comment       0x00000079       0x7a ./pinout.o
 .comment       0x00000079       0x7a ./system_msp432e401y.o
 .comment       0x00000079       0x7a ./uartstdio.o
 .comment       0x00000079       0x7a ./ustdlib.o
 .comment       0x00000079       0x7a ./Kernal/kernal/List.o
 .comment       0x00000079       0x7a ./Kernal/kernal/Mutex.o
 .comment       0x00000079       0x7a ./Kernal/kernal/PeridicTask.o
 .comment       0x00000079       0x7a ./Kernal/kernal/SquadRTOS.o
 .comment       0x00000079       0x7a ./Kernal/kernal/kenal.o
 .comment       0x00000079       0x7a ./Kernal/kernal/mailBox.o
 .comment       0x00000079       0x7a ./Kernal/kernal/queue.o
 .comment       0x00000079       0x7a ./Kernal/kernal/thread.o
 .comment       0x00000079       0x7a ./gcc/startup_msp432e401y_gcc.o
 .comment       0x00000079       0x7a ./lwip/ports/msp432e4/netif/msp432e4if.o
 .comment       0x00000079       0x7a ./lwip/ports/msp432e4/perf.o
 .comment       0x00000079       0x7a ./lwip/ports/msp432e4/sys_arch.o
 .comment       0x00000079       0x7a ./lwip/ports/msp432e4/utils/locator.o
 .comment       0x00000079       0x7a ./lwip/ports/msp432e4/utils/lwiplib.o
 .comment       0x00000079       0x7a ./lwip/ports/msp432e4/utils/swupdate.o
 .comment       0x00000079       0x7a ./lwip/src/api/api_lib.o
 .comment       0x00000079       0x7a ./lwip/src/api/api_msg.o
 .comment       0x00000079       0x7a ./lwip/src/api/err.o
 .comment       0x00000079       0x7a ./lwip/src/api/netbuf.o
 .comment       0x00000079       0x7a ./lwip/src/api/netdb.o
 .comment       0x00000079       0x7a ./lwip/src/api/netifapi.o
 .comment       0x00000079       0x7a ./lwip/src/api/sockets.o
 .comment       0x00000079       0x7a ./lwip/src/api/tcpip.o
 .comment       0x00000079       0x7a ./lwip/src/apps/httpd/httpd.o
 .comment       0x00000079       0x7a ./lwip/src/apps/lwiperf/lwiperf.o
 .comment       0x00000079       0x7a ./lwip/src/apps/mdns/mdns.o
 .comment       0x00000079       0x7a ./lwip/src/apps/mqtt/mqtt.o
 .comment       0x00000079       0x7a ./lwip/src/apps/netbiosns/netbiosns.o
 .comment       0x00000079       0x7a ./lwip/src/apps/snmp/snmp_asn1.o
 .comment       0x00000079       0x7a ./lwip/src/apps/snmp/snmp_core.o
 .comment       0x00000079       0x7a ./lwip/src/apps/snmp/snmp_mib2.o
 .comment       0x00000079       0x7a ./lwip/src/apps/snmp/snmp_mib2_icmp.o
 .comment       0x00000079       0x7a ./lwip/src/apps/snmp/snmp_mib2_interfaces.o
 .comment       0x00000079       0x7a ./lwip/src/apps/snmp/snmp_mib2_ip.o
 .comment       0x00000079       0x7a ./lwip/src/apps/snmp/snmp_mib2_snmp.o
 .comment       0x00000079       0x7a ./lwip/src/apps/snmp/snmp_mib2_system.o
 .comment       0x00000079       0x7a ./lwip/src/apps/snmp/snmp_mib2_tcp.o
 .comment       0x00000079       0x7a ./lwip/src/apps/snmp/snmp_mib2_udp.o
 .comment       0x00000079       0x7a ./lwip/src/apps/snmp/snmp_msg.o
 .comment       0x00000079       0x7a ./lwip/src/apps/snmp/snmp_netconn.o
 .comment       0x00000079       0x7a ./lwip/src/apps/snmp/snmp_pbuf_stream.o
 .comment       0x00000079       0x7a ./lwip/src/apps/snmp/snmp_raw.o
 .comment       0x00000079       0x7a ./lwip/src/apps/snmp/snmp_scalar.o
 .comment       0x00000079       0x7a ./lwip/src/apps/snmp/snmp_table.o
 .comment       0x00000079       0x7a ./lwip/src/apps/snmp/snmp_threadsync.o
 .comment       0x00000079       0x7a ./lwip/src/apps/snmp/snmp_traps.o
 .comment       0x00000079       0x7a ./lwip/src/apps/snmp/snmpv3.o
 .comment       0x00000079       0x7a ./lwip/src/apps/snmp/snmpv3_dummy.o
 .comment       0x00000079       0x7a ./lwip/src/apps/snmp/snmpv3_mbedtls.o
 .comment       0x00000079       0x7a ./lwip/src/apps/sntp/sntp.o
 .comment       0x00000079       0x7a ./lwip/src/apps/tftp/tftp_server.o
 .comment       0x00000079       0x7a ./lwip/src/core/def.o
 .comment       0x00000079       0x7a ./lwip/src/core/dns.o
 .comment       0x00000079       0x7a ./lwip/src/core/inet_chksum.o
 .comment       0x00000079       0x7a ./lwip/src/core/init.o
 .comment       0x00000079       0x7a ./lwip/src/core/ip.o
 .comment       0x00000079       0x7a ./lwip/src/core/mem.o
 .comment       0x00000079       0x7a ./lwip/src/core/memp.o
 .comment       0x00000079       0x7a ./lwip/src/core/netif.o
 .comment       0x00000079       0x7a ./lwip/src/core/pbuf.o
 .comment       0x00000079       0x7a ./lwip/src/core/raw.o
 .comment       0x00000079       0x7a ./lwip/src/core/stats.o
 .comment       0x00000079       0x7a ./lwip/src/core/sys.o
 .comment       0x00000079       0x7a ./lwip/src/core/tcp.o
 .comment       0x00000079       0x7a ./lwip/src/core/tcp_in.o
 .comment       0x00000079       0x7a ./lwip/src/core/tcp_out.o
 .comment       0x00000079       0x7a ./lwip/src/core/timeouts.o
 .comment       0x00000079       0x7a ./lwip/src/core/udp.o
 .comment       0x00000079       0x7a ./lwip/src/core/ipv4/autoip.o
 .comment       0x00000079       0x7a ./lwip/src/core/ipv4/dhcp.o
 .comment       0x00000079       0x7a ./lwip/src/core/ipv4/etharp.o
 .comment       0x00000079       0x7a ./lwip/src/core/ipv4/icmp.o
 .comment       0x00000079       0x7a ./lwip/src/core/ipv4/igmp.o
 .comment       0x00000079       0x7a ./lwip/src/core/ipv4/ip4.o
 .comment       0x00000079       0x7a ./lwip/src/core/ipv4/ip4_addr.o
 .comment       0x00000079       0x7a ./lwip/src/core/ipv4/ip4_frag.o
 .comment       0x00000079       0x7a ./lwip/src/core/ipv6/dhcp6.o
 .comment       0x00000079       0x7a ./lwip/src/core/ipv6/ethip6.o
 .comment       0x00000079       0x7a ./lwip/src/core/ipv6/icmp6.o
 .comment       0x00000079       0x7a ./lwip/src/core/ipv6/inet6.o
 .comment       0x00000079       0x7a ./lwip/src/core/ipv6/ip6.o
 .comment       0x00000079       0x7a ./lwip/src/core/ipv6/ip6_addr.o
 .comment       0x00000079       0x7a ./lwip/src/core/ipv6/ip6_frag.o
 .comment       0x00000079       0x7a ./lwip/src/core/ipv6/mld6.o
 .comment       0x00000079       0x7a ./lwip/src/core/ipv6/nd6.o
 .comment       0x00000079       0x7a ./lwip/src/netif/ethernet.o
 .comment       0x00000079       0x7a ./lwip/src/netif/ethernetif.o
 .comment       0x00000079       0x7a ./lwip/src/netif/lowpan6.o
 .comment       0x00000079       0x7a ./lwip/src/netif/slipif.o
 .comment       0x00000079       0x7a ./lwip/src/netif/ppp/auth.o
 .comment       0x00000079       0x7a ./lwip/src/netif/ppp/ccp.o
 .comment       0x00000079       0x7a ./lwip/src/netif/ppp/chap-md5.o
 .comment       0x00000079       0x7a ./lwip/src/netif/ppp/chap-new.o
 .comment       0x00000079       0x7a ./lwip/src/netif/ppp/chap_ms.o
 .comment       0x00000079       0x7a ./lwip/src/netif/ppp/demand.o
 .comment       0x00000079       0x7a ./lwip/src/netif/ppp/eap.o
 .comment       0x00000079       0x7a ./lwip/src/netif/ppp/ecp.o
 .comment       0x00000079       0x7a ./lwip/src/netif/ppp/eui64.o
 .comment       0x00000079       0x7a ./lwip/src/netif/ppp/fsm.o
 .comment       0x00000079       0x7a ./lwip/src/netif/ppp/ipcp.o
 .comment       0x00000079       0x7a ./lwip/src/netif/ppp/ipv6cp.o
 .comment       0x00000079       0x7a ./lwip/src/netif/ppp/lcp.o
 .comment       0x00000079       0x7a ./lwip/src/netif/ppp/magic.o
 .comment       0x00000079       0x7a ./lwip/src/netif/ppp/mppe.o
 .comment       0x00000079       0x7a ./lwip/src/netif/ppp/multilink.o
 .comment       0x00000079       0x7a ./lwip/src/netif/ppp/ppp.o
 .comment       0x00000079       0x7a ./lwip/src/netif/ppp/pppapi.o
 .comment       0x00000079       0x7a ./lwip/src/netif/ppp/pppcrypt.o
 .comment       0x00000079       0x7a ./lwip/src/netif/ppp/pppoe.o
 .comment       0x00000079       0x7a ./lwip/src/netif/ppp/pppol2tp.o
 .comment       0x00000079       0x7a ./lwip/src/netif/ppp/pppos.o
 .comment       0x00000079       0x7a ./lwip/src/netif/ppp/upap.o
 .comment       0x00000079       0x7a ./lwip/src/netif/ppp/utils.o
 .comment       0x00000079       0x7a ./lwip/src/netif/ppp/vj.o
 .comment       0x00000079       0x7a ./lwip/src/netif/ppp/polarssl/arc4.o
 .comment       0x00000079       0x7a ./lwip/src/netif/ppp/polarssl/des.o
 .comment       0x00000079       0x7a ./lwip/src/netif/ppp/polarssl/md4.o
 .comment       0x00000079       0x7a ./lwip/src/netif/ppp/polarssl/md5.o
 .comment       0x00000079       0x7a ./lwip/src/netif/ppp/polarssl/sha1.o
 .comment       0x00000079       0x7e C:/ti/simplelink_msp432e4_sdk_4_20_00_12/source\ti/devices/msp432e4/driverlib/lib/gcc/m4f/msp432e4_driverlib.a(emac.o)
                                 0x7f (size before relaxing)
 .comment       0x000000f7       0x7f C:/ti/simplelink_msp432e4_sdk_4_20_00_12/source\ti/devices/msp432e4/driverlib/lib/gcc/m4f/msp432e4_driverlib.a(flash.o)
 .comment       0x000000f7       0x7f C:/ti/simplelink_msp432e4_sdk_4_20_00_12/source\ti/devices/msp432e4/driverlib/lib/gcc/m4f/msp432e4_driverlib.a(gpio.o)
 .comment       0x000000f7       0x7f C:/ti/simplelink_msp432e4_sdk_4_20_00_12/source\ti/devices/msp432e4/driverlib/lib/gcc/m4f/msp432e4_driverlib.a(interrupt.o)
 .comment       0x000000f7       0x7f C:/ti/simplelink_msp432e4_sdk_4_20_00_12/source\ti/devices/msp432e4/driverlib/lib/gcc/m4f/msp432e4_driverlib.a(sw_crc.o)
 .comment       0x000000f7       0x7f C:/ti/simplelink_msp432e4_sdk_4_20_00_12/source\ti/devices/msp432e4/driverlib/lib/gcc/m4f/msp432e4_driverlib.a(sysctl.o)
 .comment       0x000000f7       0x7f C:/ti/simplelink_msp432e4_sdk_4_20_00_12/source\ti/devices/msp432e4/driverlib/lib/gcc/m4f/msp432e4_driverlib.a(systick.o)
 .comment       0x000000f7       0x7f C:/ti/simplelink_msp432e4_sdk_4_20_00_12/source\ti/devices/msp432e4/driverlib/lib/gcc/m4f/msp432e4_driverlib.a(cpu.o)

.debug_info     0x00000000    0x76a70
 .debug_info    0x00000000       0x52 ./RTE.o
 .debug_info    0x00000052      0xc84 ./cgifuncs.o
 .debug_info    0x00000cd6     0x15fc ./enet_io.o
 .debug_info    0x000022d2      0xb16 ./io.o
 .debug_info    0x00002de8     0x176d ./io_fs.o
 .debug_info    0x00004555      0xc83 ./pinout.o
 .debug_info    0x000051d8     0x1249 ./system_msp432e401y.o
 .debug_info    0x00006421      0xc71 ./uartstdio.o
 .debug_info    0x00007092     0x10ff ./ustdlib.o
 .debug_info    0x00008191      0xb70 ./Kernal/kernal/List.o
 .debug_info    0x00008d01     0x162a ./Kernal/kernal/Mutex.o
 .debug_info    0x0000a32b     0x139b ./Kernal/kernal/PeridicTask.o
 .debug_info    0x0000b6c6     0x1d48 ./Kernal/kernal/SquadRTOS.o
 .debug_info    0x0000d40e       0x26 ./Kernal/kernal/SquadRTOS_Handlers.o
 .debug_info    0x0000d434       0x26 ./Kernal/kernal/SquadRTOS_Systemcall.o
 .debug_info    0x0000d45a     0x1638 ./Kernal/kernal/mailBox.o
 .debug_info    0x0000ea92      0xb1a ./Kernal/kernal/queue.o
 .debug_info    0x0000f5ac     0x17a5 ./Kernal/kernal/thread.o
 .debug_info    0x00010d51      0x155 ./gcc/startup_msp432e401y_gcc.o
 .debug_info    0x00010ea6     0x162a ./lwip/ports/msp432e4/netif/msp432e4if.o
 .debug_info    0x000124d0       0x5b ./lwip/ports/msp432e4/perf.o
 .debug_info    0x0001252b      0xa0b ./lwip/ports/msp432e4/sys_arch.o
 .debug_info    0x00012f36     0x134b ./lwip/ports/msp432e4/utils/locator.o
 .debug_info    0x00014281     0x1daf ./lwip/ports/msp432e4/utils/lwiplib.o
 .debug_info    0x00016030     0x13ec ./lwip/ports/msp432e4/utils/swupdate.o
 .debug_info    0x0001741c      0x91b ./lwip/src/api/api_lib.o
 .debug_info    0x00017d37      0x91b ./lwip/src/api/api_msg.o
 .debug_info    0x00018652      0x91b ./lwip/src/api/err.o
 .debug_info    0x00018f6d      0x91b ./lwip/src/api/netbuf.o
 .debug_info    0x00019888      0x91b ./lwip/src/api/netdb.o
 .debug_info    0x0001a1a3      0x91b ./lwip/src/api/netifapi.o
 .debug_info    0x0001aabe      0x91b ./lwip/src/api/sockets.o
 .debug_info    0x0001b3d9      0x91b ./lwip/src/api/tcpip.o
 .debug_info    0x0001bcf4     0x2700 ./lwip/src/apps/httpd/httpd.o
 .debug_info    0x0001e3f4     0x1e3a ./lwip/src/apps/lwiperf/lwiperf.o
 .debug_info    0x0002022e     0x10af ./lwip/src/apps/mdns/mdns.o
 .debug_info    0x000212dd     0x2769 ./lwip/src/apps/mqtt/mqtt.o
 .debug_info    0x00023a46     0x14a4 ./lwip/src/apps/netbiosns/netbiosns.o
 .debug_info    0x00024eea      0x91b ./lwip/src/apps/snmp/snmp_asn1.o
 .debug_info    0x00025805      0x91b ./lwip/src/apps/snmp/snmp_core.o
 .debug_info    0x00026120      0x91b ./lwip/src/apps/snmp/snmp_mib2.o
 .debug_info    0x00026a3b      0xe9f ./lwip/src/apps/snmp/snmp_mib2_icmp.o
 .debug_info    0x000278da      0xe9f ./lwip/src/apps/snmp/snmp_mib2_interfaces.o
 .debug_info    0x00028779      0xfc6 ./lwip/src/apps/snmp/snmp_mib2_ip.o
 .debug_info    0x0002973f      0x995 ./lwip/src/apps/snmp/snmp_mib2_snmp.o
 .debug_info    0x0002a0d4      0x995 ./lwip/src/apps/snmp/snmp_mib2_system.o
 .debug_info    0x0002aa69     0x1662 ./lwip/src/apps/snmp/snmp_mib2_tcp.o
 .debug_info    0x0002c0cb     0x10af ./lwip/src/apps/snmp/snmp_mib2_udp.o
 .debug_info    0x0002d17a      0x91b ./lwip/src/apps/snmp/snmp_msg.o
 .debug_info    0x0002da95      0x91b ./lwip/src/apps/snmp/snmp_netconn.o
 .debug_info    0x0002e3b0      0x91b ./lwip/src/apps/snmp/snmp_pbuf_stream.o
 .debug_info    0x0002eccb      0x995 ./lwip/src/apps/snmp/snmp_raw.o
 .debug_info    0x0002f660      0x91b ./lwip/src/apps/snmp/snmp_scalar.o
 .debug_info    0x0002ff7b      0x91b ./lwip/src/apps/snmp/snmp_table.o
 .debug_info    0x00030896      0x91b ./lwip/src/apps/snmp/snmp_threadsync.o
 .debug_info    0x000311b1      0x91b ./lwip/src/apps/snmp/snmp_traps.o
 .debug_info    0x00031acc      0x91b ./lwip/src/apps/snmp/snmpv3.o
 .debug_info    0x000323e7      0x91b ./lwip/src/apps/snmp/snmpv3_dummy.o
 .debug_info    0x00032d02      0x91b ./lwip/src/apps/snmp/snmpv3_mbedtls.o
 .debug_info    0x0003361d     0x16b6 ./lwip/src/apps/sntp/sntp.o
 .debug_info    0x00034cd3     0x16fc ./lwip/src/apps/tftp/tftp_server.o
 .debug_info    0x000363cf      0xbee ./lwip/src/core/def.o
 .debug_info    0x00036fbd     0x1c65 ./lwip/src/core/dns.o
 .debug_info    0x00038c22      0xef5 ./lwip/src/core/inet_chksum.o
 .debug_info    0x00039b17     0x17e8 ./lwip/src/core/init.o
 .debug_info    0x0003b2ff     0x1036 ./lwip/src/core/ip.o
 .debug_info    0x0003c335      0xfa4 ./lwip/src/core/mem.o
 .debug_info    0x0003d2d9     0x1cbb ./lwip/src/core/memp.o
 .debug_info    0x0003ef94     0x1c3a ./lwip/src/core/netif.o
 .debug_info    0x00040bce     0x2281 ./lwip/src/core/pbuf.o
 .debug_info    0x00042e4f      0x91b ./lwip/src/core/raw.o
 .debug_info    0x0004376a      0xc1c ./lwip/src/core/stats.o
 .debug_info    0x00044386      0x91b ./lwip/src/core/sys.o
 .debug_info    0x00044ca1     0x2750 ./lwip/src/core/tcp.o
 .debug_info    0x000473f1     0x1c81 ./lwip/src/core/tcp_in.o
 .debug_info    0x00049072     0x2140 ./lwip/src/core/tcp_out.o
 .debug_info    0x0004b1b2     0x1b12 ./lwip/src/core/timeouts.o
 .debug_info    0x0004ccc4     0x1844 ./lwip/src/core/udp.o
 .debug_info    0x0004e508     0x14ae ./lwip/src/core/ipv4/autoip.o
 .debug_info    0x0004f9b6     0x21d4 ./lwip/src/core/ipv4/dhcp.o
 .debug_info    0x00051b8a     0x1adb ./lwip/src/core/ipv4/etharp.o
 .debug_info    0x00053665     0x12f1 ./lwip/src/core/ipv4/icmp.o
 .debug_info    0x00054956      0x91b ./lwip/src/core/ipv4/igmp.o
 .debug_info    0x00055271     0x1ba2 ./lwip/src/core/ipv4/ip4.o
 .debug_info    0x00056e13     0x11c5 ./lwip/src/core/ipv4/ip4_addr.o
 .debug_info    0x00057fd8      0xfc6 ./lwip/src/core/ipv4/ip4_frag.o
 .debug_info    0x00058f9e      0x91b ./lwip/src/core/ipv6/dhcp6.o
 .debug_info    0x000598b9      0x91b ./lwip/src/core/ipv6/ethip6.o
 .debug_info    0x0005a1d4      0x91b ./lwip/src/core/ipv6/icmp6.o
 .debug_info    0x0005aaef      0x91b ./lwip/src/core/ipv6/inet6.o
 .debug_info    0x0005b40a      0x91b ./lwip/src/core/ipv6/ip6.o
 .debug_info    0x0005bd25      0x91b ./lwip/src/core/ipv6/ip6_addr.o
 .debug_info    0x0005c640      0xfc6 ./lwip/src/core/ipv6/ip6_frag.o
 .debug_info    0x0005d606      0x91b ./lwip/src/core/ipv6/mld6.o
 .debug_info    0x0005df21      0x91b ./lwip/src/core/ipv6/nd6.o
 .debug_info    0x0005e83c     0x12ea ./lwip/src/netif/ethernet.o
 .debug_info    0x0005fb26      0x91b ./lwip/src/netif/ethernetif.o
 .debug_info    0x00060441      0x91b ./lwip/src/netif/lowpan6.o
 .debug_info    0x00060d5c     0x11d2 ./lwip/src/netif/slipif.o
 .debug_info    0x00061f2e      0x91b ./lwip/src/netif/ppp/auth.o
 .debug_info    0x00062849      0x91b ./lwip/src/netif/ppp/ccp.o
 .debug_info    0x00063164      0x91b ./lwip/src/netif/ppp/chap-md5.o
 .debug_info    0x00063a7f      0x91b ./lwip/src/netif/ppp/chap-new.o
 .debug_info    0x0006439a      0x91b ./lwip/src/netif/ppp/chap_ms.o
 .debug_info    0x00064cb5      0x91b ./lwip/src/netif/ppp/demand.o
 .debug_info    0x000655d0      0x91b ./lwip/src/netif/ppp/eap.o
 .debug_info    0x00065eeb      0x91b ./lwip/src/netif/ppp/ecp.o
 .debug_info    0x00066806      0x91b ./lwip/src/netif/ppp/eui64.o
 .debug_info    0x00067121      0x91b ./lwip/src/netif/ppp/fsm.o
 .debug_info    0x00067a3c      0x91b ./lwip/src/netif/ppp/ipcp.o
 .debug_info    0x00068357      0x91b ./lwip/src/netif/ppp/ipv6cp.o
 .debug_info    0x00068c72      0x91b ./lwip/src/netif/ppp/lcp.o
 .debug_info    0x0006958d      0x91b ./lwip/src/netif/ppp/magic.o
 .debug_info    0x00069ea8      0x91b ./lwip/src/netif/ppp/mppe.o
 .debug_info    0x0006a7c3      0x91b ./lwip/src/netif/ppp/multilink.o
 .debug_info    0x0006b0de      0x91b ./lwip/src/netif/ppp/ppp.o
 .debug_info    0x0006b9f9      0x91b ./lwip/src/netif/ppp/pppapi.o
 .debug_info    0x0006c314      0x91b ./lwip/src/netif/ppp/pppcrypt.o
 .debug_info    0x0006cc2f      0x91b ./lwip/src/netif/ppp/pppoe.o
 .debug_info    0x0006d54a      0x91b ./lwip/src/netif/ppp/pppol2tp.o
 .debug_info    0x0006de65      0x91b ./lwip/src/netif/ppp/pppos.o
 .debug_info    0x0006e780      0x91b ./lwip/src/netif/ppp/upap.o
 .debug_info    0x0006f09b      0x91b ./lwip/src/netif/ppp/utils.o
 .debug_info    0x0006f9b6      0x91b ./lwip/src/netif/ppp/vj.o
 .debug_info    0x000702d1      0x91b ./lwip/src/netif/ppp/polarssl/arc4.o
 .debug_info    0x00070bec      0x91b ./lwip/src/netif/ppp/polarssl/des.o
 .debug_info    0x00071507      0x91b ./lwip/src/netif/ppp/polarssl/md4.o
 .debug_info    0x00071e22      0x91b ./lwip/src/netif/ppp/polarssl/md5.o
 .debug_info    0x0007273d      0x91b ./lwip/src/netif/ppp/polarssl/sha1.o
 .debug_info    0x00073058     0x1500 C:/ti/simplelink_msp432e4_sdk_4_20_00_12/source\ti/devices/msp432e4/driverlib/lib/gcc/m4f/msp432e4_driverlib.a(emac.o)
 .debug_info    0x00074558      0x495 C:/ti/simplelink_msp432e4_sdk_4_20_00_12/source\ti/devices/msp432e4/driverlib/lib/gcc/m4f/msp432e4_driverlib.a(flash.o)
 .debug_info    0x000749ed      0xcea C:/ti/simplelink_msp432e4_sdk_4_20_00_12/source\ti/devices/msp432e4/driverlib/lib/gcc/m4f/msp432e4_driverlib.a(gpio.o)
 .debug_info    0x000756d7      0x43b C:/ti/simplelink_msp432e4_sdk_4_20_00_12/source\ti/devices/msp432e4/driverlib/lib/gcc/m4f/msp432e4_driverlib.a(interrupt.o)
 .debug_info    0x00075b12      0x2fb C:/ti/simplelink_msp432e4_sdk_4_20_00_12/source\ti/devices/msp432e4/driverlib/lib/gcc/m4f/msp432e4_driverlib.a(sw_crc.o)
 .debug_info    0x00075e0d      0x9bf C:/ti/simplelink_msp432e4_sdk_4_20_00_12/source\ti/devices/msp432e4/driverlib/lib/gcc/m4f/msp432e4_driverlib.a(sysctl.o)
 .debug_info    0x000767cc      0x151 C:/ti/simplelink_msp432e4_sdk_4_20_00_12/source\ti/devices/msp432e4/driverlib/lib/gcc/m4f/msp432e4_driverlib.a(systick.o)
 .debug_info    0x0007691d      0x153 C:/ti/simplelink_msp432e4_sdk_4_20_00_12/source\ti/devices/msp432e4/driverlib/lib/gcc/m4f/msp432e4_driverlib.a(cpu.o)

.debug_abbrev   0x00000000     0xecdf
 .debug_abbrev  0x00000000       0x49 ./RTE.o
 .debug_abbrev  0x00000049      0x211 ./cgifuncs.o
 .debug_abbrev  0x0000025a      0x291 ./enet_io.o
 .debug_abbrev  0x000004eb      0x21e ./io.o
 .debug_abbrev  0x00000709      0x284 ./io_fs.o
 .debug_abbrev  0x0000098d      0x20c ./pinout.o
 .debug_abbrev  0x00000b99      0x136 ./system_msp432e401y.o
 .debug_abbrev  0x00000ccf      0x245 ./uartstdio.o
 .debug_abbrev  0x00000f14      0x2cc ./ustdlib.o
 .debug_abbrev  0x000011e0      0x1d0 ./Kernal/kernal/List.o
 .debug_abbrev  0x000013b0      0x25d ./Kernal/kernal/Mutex.o
 .debug_abbrev  0x0000160d      0x219 ./Kernal/kernal/PeridicTask.o
 .debug_abbrev  0x00001826      0x3c2 ./Kernal/kernal/SquadRTOS.o
 .debug_abbrev  0x00001be8       0x14 ./Kernal/kernal/SquadRTOS_Handlers.o
 .debug_abbrev  0x00001bfc       0x14 ./Kernal/kernal/SquadRTOS_Systemcall.o
 .debug_abbrev  0x00001c10      0x206 ./Kernal/kernal/mailBox.o
 .debug_abbrev  0x00001e16      0x1ba ./Kernal/kernal/queue.o
 .debug_abbrev  0x00001fd0      0x2ad ./Kernal/kernal/thread.o
 .debug_abbrev  0x0000227d       0xdc ./gcc/startup_msp432e401y_gcc.o
 .debug_abbrev  0x00002359      0x297 ./lwip/ports/msp432e4/netif/msp432e4if.o
 .debug_abbrev  0x000025f0       0x52 ./lwip/ports/msp432e4/perf.o
 .debug_abbrev  0x00002642      0x1c1 ./lwip/ports/msp432e4/sys_arch.o
 .debug_abbrev  0x00002803      0x258 ./lwip/ports/msp432e4/utils/locator.o
 .debug_abbrev  0x00002a5b      0x2d5 ./lwip/ports/msp432e4/utils/lwiplib.o
 .debug_abbrev  0x00002d30      0x285 ./lwip/ports/msp432e4/utils/swupdate.o
 .debug_abbrev  0x00002fb5      0x160 ./lwip/src/api/api_lib.o
 .debug_abbrev  0x00003115      0x160 ./lwip/src/api/api_msg.o
 .debug_abbrev  0x00003275      0x160 ./lwip/src/api/err.o
 .debug_abbrev  0x000033d5      0x160 ./lwip/src/api/netbuf.o
 .debug_abbrev  0x00003535      0x160 ./lwip/src/api/netdb.o
 .debug_abbrev  0x00003695      0x160 ./lwip/src/api/netifapi.o
 .debug_abbrev  0x000037f5      0x160 ./lwip/src/api/sockets.o
 .debug_abbrev  0x00003955      0x160 ./lwip/src/api/tcpip.o
 .debug_abbrev  0x00003ab5      0x2b1 ./lwip/src/apps/httpd/httpd.o
 .debug_abbrev  0x00003d66      0x2f1 ./lwip/src/apps/lwiperf/lwiperf.o
 .debug_abbrev  0x00004057      0x17a ./lwip/src/apps/mdns/mdns.o
 .debug_abbrev  0x000041d1      0x309 ./lwip/src/apps/mqtt/mqtt.o
 .debug_abbrev  0x000044da      0x29c ./lwip/src/apps/netbiosns/netbiosns.o
 .debug_abbrev  0x00004776      0x160 ./lwip/src/apps/snmp/snmp_asn1.o
 .debug_abbrev  0x000048d6      0x160 ./lwip/src/apps/snmp/snmp_core.o
 .debug_abbrev  0x00004a36      0x160 ./lwip/src/apps/snmp/snmp_mib2.o
 .debug_abbrev  0x00004b96      0x17a ./lwip/src/apps/snmp/snmp_mib2_icmp.o
 .debug_abbrev  0x00004d10      0x17a ./lwip/src/apps/snmp/snmp_mib2_interfaces.o
 .debug_abbrev  0x00004e8a      0x17a ./lwip/src/apps/snmp/snmp_mib2_ip.o
 .debug_abbrev  0x00005004      0x160 ./lwip/src/apps/snmp/snmp_mib2_snmp.o
 .debug_abbrev  0x00005164      0x160 ./lwip/src/apps/snmp/snmp_mib2_system.o
 .debug_abbrev  0x000052c4      0x1b6 ./lwip/src/apps/snmp/snmp_mib2_tcp.o
 .debug_abbrev  0x0000547a      0x17a ./lwip/src/apps/snmp/snmp_mib2_udp.o
 .debug_abbrev  0x000055f4      0x160 ./lwip/src/apps/snmp/snmp_msg.o
 .debug_abbrev  0x00005754      0x160 ./lwip/src/apps/snmp/snmp_netconn.o
 .debug_abbrev  0x000058b4      0x160 ./lwip/src/apps/snmp/snmp_pbuf_stream.o
 .debug_abbrev  0x00005a14      0x160 ./lwip/src/apps/snmp/snmp_raw.o
 .debug_abbrev  0x00005b74      0x160 ./lwip/src/apps/snmp/snmp_scalar.o
 .debug_abbrev  0x00005cd4      0x160 ./lwip/src/apps/snmp/snmp_table.o
 .debug_abbrev  0x00005e34      0x160 ./lwip/src/apps/snmp/snmp_threadsync.o
 .debug_abbrev  0x00005f94      0x160 ./lwip/src/apps/snmp/snmp_traps.o
 .debug_abbrev  0x000060f4      0x160 ./lwip/src/apps/snmp/snmpv3.o
 .debug_abbrev  0x00006254      0x160 ./lwip/src/apps/snmp/snmpv3_dummy.o
 .debug_abbrev  0x000063b4      0x160 ./lwip/src/apps/snmp/snmpv3_mbedtls.o
 .debug_abbrev  0x00006514      0x2dc ./lwip/src/apps/sntp/sntp.o
 .debug_abbrev  0x000067f0      0x2ab ./lwip/src/apps/tftp/tftp_server.o
 .debug_abbrev  0x00006a9b      0x1fe ./lwip/src/core/def.o
 .debug_abbrev  0x00006c99      0x2a1 ./lwip/src/core/dns.o
 .debug_abbrev  0x00006f3a      0x249 ./lwip/src/core/inet_chksum.o
 .debug_abbrev  0x00007183      0x1e7 ./lwip/src/core/init.o
 .debug_abbrev  0x0000736a      0x1b6 ./lwip/src/core/ip.o
 .debug_abbrev  0x00007520      0x268 ./lwip/src/core/mem.o
 .debug_abbrev  0x00007788      0x2ed ./lwip/src/core/memp.o
 .debug_abbrev  0x00007a75      0x2e0 ./lwip/src/core/netif.o
 .debug_abbrev  0x00007d55      0x2fe ./lwip/src/core/pbuf.o
 .debug_abbrev  0x00008053      0x160 ./lwip/src/core/raw.o
 .debug_abbrev  0x000081b3      0x1b7 ./lwip/src/core/stats.o
 .debug_abbrev  0x0000836a      0x160 ./lwip/src/core/sys.o
 .debug_abbrev  0x000084ca      0x339 ./lwip/src/core/tcp.o
 .debug_abbrev  0x00008803      0x2e2 ./lwip/src/core/tcp_in.o
 .debug_abbrev  0x00008ae5      0x32c ./lwip/src/core/tcp_out.o
 .debug_abbrev  0x00008e11      0x317 ./lwip/src/core/timeouts.o
 .debug_abbrev  0x00009128      0x2ef ./lwip/src/core/udp.o
 .debug_abbrev  0x00009417      0x2c6 ./lwip/src/core/ipv4/autoip.o
 .debug_abbrev  0x000096dd      0x2cf ./lwip/src/core/ipv4/dhcp.o
 .debug_abbrev  0x000099ac      0x2b8 ./lwip/src/core/ipv4/etharp.o
 .debug_abbrev  0x00009c64      0x295 ./lwip/src/core/ipv4/icmp.o
 .debug_abbrev  0x00009ef9      0x160 ./lwip/src/core/ipv4/igmp.o
 .debug_abbrev  0x0000a059      0x271 ./lwip/src/core/ipv4/ip4.o
 .debug_abbrev  0x0000a2ca      0x278 ./lwip/src/core/ipv4/ip4_addr.o
 .debug_abbrev  0x0000a542      0x17a ./lwip/src/core/ipv4/ip4_frag.o
 .debug_abbrev  0x0000a6bc      0x160 ./lwip/src/core/ipv6/dhcp6.o
 .debug_abbrev  0x0000a81c      0x160 ./lwip/src/core/ipv6/ethip6.o
 .debug_abbrev  0x0000a97c      0x160 ./lwip/src/core/ipv6/icmp6.o
 .debug_abbrev  0x0000aadc      0x160 ./lwip/src/core/ipv6/inet6.o
 .debug_abbrev  0x0000ac3c      0x160 ./lwip/src/core/ipv6/ip6.o
 .debug_abbrev  0x0000ad9c      0x160 ./lwip/src/core/ipv6/ip6_addr.o
 .debug_abbrev  0x0000aefc      0x17a ./lwip/src/core/ipv6/ip6_frag.o
 .debug_abbrev  0x0000b076      0x160 ./lwip/src/core/ipv6/mld6.o
 .debug_abbrev  0x0000b1d6      0x160 ./lwip/src/core/ipv6/nd6.o
 .debug_abbrev  0x0000b336      0x284 ./lwip/src/netif/ethernet.o
 .debug_abbrev  0x0000b5ba      0x160 ./lwip/src/netif/ethernetif.o
 .debug_abbrev  0x0000b71a      0x160 ./lwip/src/netif/lowpan6.o
 .debug_abbrev  0x0000b87a      0x2b7 ./lwip/src/netif/slipif.o
 .debug_abbrev  0x0000bb31      0x160 ./lwip/src/netif/ppp/auth.o
 .debug_abbrev  0x0000bc91      0x160 ./lwip/src/netif/ppp/ccp.o
 .debug_abbrev  0x0000bdf1      0x160 ./lwip/src/netif/ppp/chap-md5.o
 .debug_abbrev  0x0000bf51      0x160 ./lwip/src/netif/ppp/chap-new.o
 .debug_abbrev  0x0000c0b1      0x160 ./lwip/src/netif/ppp/chap_ms.o
 .debug_abbrev  0x0000c211      0x160 ./lwip/src/netif/ppp/demand.o
 .debug_abbrev  0x0000c371      0x160 ./lwip/src/netif/ppp/eap.o
 .debug_abbrev  0x0000c4d1      0x160 ./lwip/src/netif/ppp/ecp.o
 .debug_abbrev  0x0000c631      0x160 ./lwip/src/netif/ppp/eui64.o
 .debug_abbrev  0x0000c791      0x160 ./lwip/src/netif/ppp/fsm.o
 .debug_abbrev  0x0000c8f1      0x160 ./lwip/src/netif/ppp/ipcp.o
 .debug_abbrev  0x0000ca51      0x160 ./lwip/src/netif/ppp/ipv6cp.o
 .debug_abbrev  0x0000cbb1      0x160 ./lwip/src/netif/ppp/lcp.o
 .debug_abbrev  0x0000cd11      0x160 ./lwip/src/netif/ppp/magic.o
 .debug_abbrev  0x0000ce71      0x160 ./lwip/src/netif/ppp/mppe.o
 .debug_abbrev  0x0000cfd1      0x160 ./lwip/src/netif/ppp/multilink.o
 .debug_abbrev  0x0000d131      0x160 ./lwip/src/netif/ppp/ppp.o
 .debug_abbrev  0x0000d291      0x160 ./lwip/src/netif/ppp/pppapi.o
 .debug_abbrev  0x0000d3f1      0x160 ./lwip/src/netif/ppp/pppcrypt.o
 .debug_abbrev  0x0000d551      0x160 ./lwip/src/netif/ppp/pppoe.o
 .debug_abbrev  0x0000d6b1      0x160 ./lwip/src/netif/ppp/pppol2tp.o
 .debug_abbrev  0x0000d811      0x160 ./lwip/src/netif/ppp/pppos.o
 .debug_abbrev  0x0000d971      0x160 ./lwip/src/netif/ppp/upap.o
 .debug_abbrev  0x0000dad1      0x160 ./lwip/src/netif/ppp/utils.o
 .debug_abbrev  0x0000dc31      0x160 ./lwip/src/netif/ppp/vj.o
 .debug_abbrev  0x0000dd91      0x160 ./lwip/src/netif/ppp/polarssl/arc4.o
 .debug_abbrev  0x0000def1      0x160 ./lwip/src/netif/ppp/polarssl/des.o
 .debug_abbrev  0x0000e051      0x160 ./lwip/src/netif/ppp/polarssl/md4.o
 .debug_abbrev  0x0000e1b1      0x160 ./lwip/src/netif/ppp/polarssl/md5.o
 .debug_abbrev  0x0000e311      0x160 ./lwip/src/netif/ppp/polarssl/sha1.o
 .debug_abbrev  0x0000e471      0x170 C:/ti/simplelink_msp432e4_sdk_4_20_00_12/source\ti/devices/msp432e4/driverlib/lib/gcc/m4f/msp432e4_driverlib.a(emac.o)
 .debug_abbrev  0x0000e5e1      0x140 C:/ti/simplelink_msp432e4_sdk_4_20_00_12/source\ti/devices/msp432e4/driverlib/lib/gcc/m4f/msp432e4_driverlib.a(flash.o)
 .debug_abbrev  0x0000e721      0x123 C:/ti/simplelink_msp432e4_sdk_4_20_00_12/source\ti/devices/msp432e4/driverlib/lib/gcc/m4f/msp432e4_driverlib.a(gpio.o)
 .debug_abbrev  0x0000e844       0xfe C:/ti/simplelink_msp432e4_sdk_4_20_00_12/source\ti/devices/msp432e4/driverlib/lib/gcc/m4f/msp432e4_driverlib.a(interrupt.o)
 .debug_abbrev  0x0000e942       0xcd C:/ti/simplelink_msp432e4_sdk_4_20_00_12/source\ti/devices/msp432e4/driverlib/lib/gcc/m4f/msp432e4_driverlib.a(sw_crc.o)
 .debug_abbrev  0x0000ea0f      0x147 C:/ti/simplelink_msp432e4_sdk_4_20_00_12/source\ti/devices/msp432e4/driverlib/lib/gcc/m4f/msp432e4_driverlib.a(sysctl.o)
 .debug_abbrev  0x0000eb56       0xb0 C:/ti/simplelink_msp432e4_sdk_4_20_00_12/source\ti/devices/msp432e4/driverlib/lib/gcc/m4f/msp432e4_driverlib.a(systick.o)
 .debug_abbrev  0x0000ec06       0xd9 C:/ti/simplelink_msp432e4_sdk_4_20_00_12/source\ti/devices/msp432e4/driverlib/lib/gcc/m4f/msp432e4_driverlib.a(cpu.o)

.debug_aranges  0x00000000     0x2480
 .debug_aranges
                0x00000000       0x20 ./RTE.o
 .debug_aranges
                0x00000020       0x58 ./cgifuncs.o
 .debug_aranges
                0x00000078       0x50 ./enet_io.o
 .debug_aranges
                0x000000c8       0x60 ./io.o
 .debug_aranges
                0x00000128       0x38 ./io_fs.o
 .debug_aranges
                0x00000160       0x30 ./pinout.o
 .debug_aranges
                0x00000190       0x28 ./system_msp432e401y.o
 .debug_aranges
                0x000001b8       0x48 ./uartstdio.o
 .debug_aranges
                0x00000200       0xa0 ./ustdlib.o
 .debug_aranges
                0x000002a0       0x38 ./Kernal/kernal/List.o
 .debug_aranges
                0x000002d8       0x30 ./Kernal/kernal/Mutex.o
 .debug_aranges
                0x00000308       0x48 ./Kernal/kernal/PeridicTask.o
 .debug_aranges
                0x00000350       0x70 ./Kernal/kernal/SquadRTOS.o
 .debug_aranges
                0x000003c0       0x20 ./Kernal/kernal/SquadRTOS_Handlers.o
 .debug_aranges
                0x000003e0       0x20 ./Kernal/kernal/SquadRTOS_Systemcall.o
 .debug_aranges
                0x00000400       0x38 ./Kernal/kernal/mailBox.o
 .debug_aranges
                0x00000438       0x50 ./Kernal/kernal/queue.o
 .debug_aranges
                0x00000488       0x80 ./Kernal/kernal/thread.o
 .debug_aranges
                0x00000508       0x28 ./gcc/startup_msp432e401y_gcc.o
 .debug_aranges
                0x00000530       0x60 ./lwip/ports/msp432e4/netif/msp432e4if.o
 .debug_aranges
                0x00000590       0x20 ./lwip/ports/msp432e4/perf.o
 .debug_aranges
                0x000005b0       0x30 ./lwip/ports/msp432e4/sys_arch.o
 .debug_aranges
                0x000005e0       0x58 ./lwip/ports/msp432e4/utils/locator.o
 .debug_aranges
                0x00000638       0x88 ./lwip/ports/msp432e4/utils/lwiplib.o
 .debug_aranges
                0x000006c0       0x30 ./lwip/ports/msp432e4/utils/swupdate.o
 .debug_aranges
                0x000006f0       0x18 ./lwip/src/api/api_lib.o
 .debug_aranges
                0x00000708       0x18 ./lwip/src/api/api_msg.o
 .debug_aranges
                0x00000720       0x18 ./lwip/src/api/err.o
 .debug_aranges
                0x00000738       0x18 ./lwip/src/api/netbuf.o
 .debug_aranges
                0x00000750       0x18 ./lwip/src/api/netdb.o
 .debug_aranges
                0x00000768       0x18 ./lwip/src/api/netifapi.o
 .debug_aranges
                0x00000780       0x18 ./lwip/src/api/sockets.o
 .debug_aranges
                0x00000798       0x18 ./lwip/src/api/tcpip.o
 .debug_aranges
                0x000007b0      0x108 ./lwip/src/apps/httpd/httpd.o
 .debug_aranges
                0x000008b8       0x90 ./lwip/src/apps/lwiperf/lwiperf.o
 .debug_aranges
                0x00000948       0x18 ./lwip/src/apps/mdns/mdns.o
 .debug_aranges
                0x00000960      0x120 ./lwip/src/apps/mqtt/mqtt.o
 .debug_aranges
                0x00000a80       0x40 ./lwip/src/apps/netbiosns/netbiosns.o
 .debug_aranges
                0x00000ac0       0x18 ./lwip/src/apps/snmp/snmp_asn1.o
 .debug_aranges
                0x00000ad8       0x18 ./lwip/src/apps/snmp/snmp_core.o
 .debug_aranges
                0x00000af0       0x18 ./lwip/src/apps/snmp/snmp_mib2.o
 .debug_aranges
                0x00000b08       0x18 ./lwip/src/apps/snmp/snmp_mib2_icmp.o
 .debug_aranges
                0x00000b20       0x18 ./lwip/src/apps/snmp/snmp_mib2_interfaces.o
 .debug_aranges
                0x00000b38       0x18 ./lwip/src/apps/snmp/snmp_mib2_ip.o
 .debug_aranges
                0x00000b50       0x18 ./lwip/src/apps/snmp/snmp_mib2_snmp.o
 .debug_aranges
                0x00000b68       0x18 ./lwip/src/apps/snmp/snmp_mib2_system.o
 .debug_aranges
                0x00000b80       0x18 ./lwip/src/apps/snmp/snmp_mib2_tcp.o
 .debug_aranges
                0x00000b98       0x18 ./lwip/src/apps/snmp/snmp_mib2_udp.o
 .debug_aranges
                0x00000bb0       0x18 ./lwip/src/apps/snmp/snmp_msg.o
 .debug_aranges
                0x00000bc8       0x18 ./lwip/src/apps/snmp/snmp_netconn.o
 .debug_aranges
                0x00000be0       0x18 ./lwip/src/apps/snmp/snmp_pbuf_stream.o
 .debug_aranges
                0x00000bf8       0x18 ./lwip/src/apps/snmp/snmp_raw.o
 .debug_aranges
                0x00000c10       0x18 ./lwip/src/apps/snmp/snmp_scalar.o
 .debug_aranges
                0x00000c28       0x18 ./lwip/src/apps/snmp/snmp_table.o
 .debug_aranges
                0x00000c40       0x18 ./lwip/src/apps/snmp/snmp_threadsync.o
 .debug_aranges
                0x00000c58       0x18 ./lwip/src/apps/snmp/snmp_traps.o
 .debug_aranges
                0x00000c70       0x18 ./lwip/src/apps/snmp/snmpv3.o
 .debug_aranges
                0x00000c88       0x18 ./lwip/src/apps/snmp/snmpv3_dummy.o
 .debug_aranges
                0x00000ca0       0x18 ./lwip/src/apps/snmp/snmpv3_mbedtls.o
 .debug_aranges
                0x00000cb8       0x80 ./lwip/src/apps/sntp/sntp.o
 .debug_aranges
                0x00000d38       0x58 ./lwip/src/apps/tftp/tftp_server.o
 .debug_aranges
                0x00000d90       0x48 ./lwip/src/core/def.o
 .debug_aranges
                0x00000dd8       0xb0 ./lwip/src/core/dns.o
 .debug_aranges
                0x00000e88       0x60 ./lwip/src/core/inet_chksum.o
 .debug_aranges
                0x00000ee8       0x20 ./lwip/src/core/init.o
 .debug_aranges
                0x00000f08       0x18 ./lwip/src/core/ip.o
 .debug_aranges
                0x00000f20       0x48 ./lwip/src/core/mem.o
 .debug_aranges
                0x00000f68       0x58 ./lwip/src/core/memp.o
 .debug_aranges
                0x00000fc0       0x90 ./lwip/src/core/netif.o
 .debug_aranges
                0x00001050       0xe8 ./lwip/src/core/pbuf.o
 .debug_aranges
                0x00001138       0x18 ./lwip/src/core/raw.o
 .debug_aranges
                0x00001150       0x20 ./lwip/src/core/stats.o
 .debug_aranges
                0x00001170       0x18 ./lwip/src/core/sys.o
 .debug_aranges
                0x00001188      0x188 ./lwip/src/core/tcp.o
 .debug_aranges
                0x00001310       0x60 ./lwip/src/core/tcp_in.o
 .debug_aranges
                0x00001370       0x98 ./lwip/src/core/tcp_out.o
 .debug_aranges
                0x00001408       0x60 ./lwip/src/core/timeouts.o
 .debug_aranges
                0x00001468       0x98 ./lwip/src/core/udp.o
 .debug_aranges
                0x00001500       0x90 ./lwip/src/core/ipv4/autoip.o
 .debug_aranges
                0x00001590      0x140 ./lwip/src/core/ipv4/dhcp.o
 .debug_aranges
                0x000016d0       0x88 ./lwip/src/core/ipv4/etharp.o
 .debug_aranges
                0x00001758       0x30 ./lwip/src/core/ipv4/icmp.o
 .debug_aranges
                0x00001788       0x18 ./lwip/src/core/ipv4/igmp.o
 .debug_aranges
                0x000017a0       0x40 ./lwip/src/core/ipv4/ip4.o
 .debug_aranges
                0x000017e0       0x48 ./lwip/src/core/ipv4/ip4_addr.o
 .debug_aranges
                0x00001828       0x18 ./lwip/src/core/ipv4/ip4_frag.o
 .debug_aranges
                0x00001840       0x18 ./lwip/src/core/ipv6/dhcp6.o
 .debug_aranges
                0x00001858       0x18 ./lwip/src/core/ipv6/ethip6.o
 .debug_aranges
                0x00001870       0x18 ./lwip/src/core/ipv6/icmp6.o
 .debug_aranges
                0x00001888       0x18 ./lwip/src/core/ipv6/inet6.o
 .debug_aranges
                0x000018a0       0x18 ./lwip/src/core/ipv6/ip6.o
 .debug_aranges
                0x000018b8       0x18 ./lwip/src/core/ipv6/ip6_addr.o
 .debug_aranges
                0x000018d0       0x18 ./lwip/src/core/ipv6/ip6_frag.o
 .debug_aranges
                0x000018e8       0x18 ./lwip/src/core/ipv6/mld6.o
 .debug_aranges
                0x00001900       0x18 ./lwip/src/core/ipv6/nd6.o
 .debug_aranges
                0x00001918       0x28 ./lwip/src/netif/ethernet.o
 .debug_aranges
                0x00001940       0x18 ./lwip/src/netif/ethernetif.o
 .debug_aranges
                0x00001958       0x18 ./lwip/src/netif/lowpan6.o
 .debug_aranges
                0x00001970       0x48 ./lwip/src/netif/slipif.o
 .debug_aranges
                0x000019b8       0x18 ./lwip/src/netif/ppp/auth.o
 .debug_aranges
                0x000019d0       0x18 ./lwip/src/netif/ppp/ccp.o
 .debug_aranges
                0x000019e8       0x18 ./lwip/src/netif/ppp/chap-md5.o
 .debug_aranges
                0x00001a00       0x18 ./lwip/src/netif/ppp/chap-new.o
 .debug_aranges
                0x00001a18       0x18 ./lwip/src/netif/ppp/chap_ms.o
 .debug_aranges
                0x00001a30       0x18 ./lwip/src/netif/ppp/demand.o
 .debug_aranges
                0x00001a48       0x18 ./lwip/src/netif/ppp/eap.o
 .debug_aranges
                0x00001a60       0x18 ./lwip/src/netif/ppp/ecp.o
 .debug_aranges
                0x00001a78       0x18 ./lwip/src/netif/ppp/eui64.o
 .debug_aranges
                0x00001a90       0x18 ./lwip/src/netif/ppp/fsm.o
 .debug_aranges
                0x00001aa8       0x18 ./lwip/src/netif/ppp/ipcp.o
 .debug_aranges
                0x00001ac0       0x18 ./lwip/src/netif/ppp/ipv6cp.o
 .debug_aranges
                0x00001ad8       0x18 ./lwip/src/netif/ppp/lcp.o
 .debug_aranges
                0x00001af0       0x18 ./lwip/src/netif/ppp/magic.o
 .debug_aranges
                0x00001b08       0x18 ./lwip/src/netif/ppp/mppe.o
 .debug_aranges
                0x00001b20       0x18 ./lwip/src/netif/ppp/multilink.o
 .debug_aranges
                0x00001b38       0x18 ./lwip/src/netif/ppp/ppp.o
 .debug_aranges
                0x00001b50       0x18 ./lwip/src/netif/ppp/pppapi.o
 .debug_aranges
                0x00001b68       0x18 ./lwip/src/netif/ppp/pppcrypt.o
 .debug_aranges
                0x00001b80       0x18 ./lwip/src/netif/ppp/pppoe.o
 .debug_aranges
                0x00001b98       0x18 ./lwip/src/netif/ppp/pppol2tp.o
 .debug_aranges
                0x00001bb0       0x18 ./lwip/src/netif/ppp/pppos.o
 .debug_aranges
                0x00001bc8       0x18 ./lwip/src/netif/ppp/upap.o
 .debug_aranges
                0x00001be0       0x18 ./lwip/src/netif/ppp/utils.o
 .debug_aranges
                0x00001bf8       0x18 ./lwip/src/netif/ppp/vj.o
 .debug_aranges
                0x00001c10       0x18 ./lwip/src/netif/ppp/polarssl/arc4.o
 .debug_aranges
                0x00001c28       0x18 ./lwip/src/netif/ppp/polarssl/des.o
 .debug_aranges
                0x00001c40       0x18 ./lwip/src/netif/ppp/polarssl/md4.o
 .debug_aranges
                0x00001c58       0x18 ./lwip/src/netif/ppp/polarssl/md5.o
 .debug_aranges
                0x00001c70       0x18 ./lwip/src/netif/ppp/polarssl/sha1.o
 .debug_aranges
                0x00001c88      0x2a0 C:/ti/simplelink_msp432e4_sdk_4_20_00_12/source\ti/devices/msp432e4/driverlib/lib/gcc/m4f/msp432e4_driverlib.a(emac.o)
 .debug_aranges
                0x00001f28       0xa0 C:/ti/simplelink_msp432e4_sdk_4_20_00_12/source\ti/devices/msp432e4/driverlib/lib/gcc/m4f/msp432e4_driverlib.a(flash.o)
 .debug_aranges
                0x00001fc8      0x1a0 C:/ti/simplelink_msp432e4_sdk_4_20_00_12/source\ti/devices/msp432e4/driverlib/lib/gcc/m4f/msp432e4_driverlib.a(gpio.o)
 .debug_aranges
                0x00002168       0xa0 C:/ti/simplelink_msp432e4_sdk_4_20_00_12/source\ti/devices/msp432e4/driverlib/lib/gcc/m4f/msp432e4_driverlib.a(interrupt.o)
 .debug_aranges
                0x00002208       0x40 C:/ti/simplelink_msp432e4_sdk_4_20_00_12/source\ti/devices/msp432e4/driverlib/lib/gcc/m4f/msp432e4_driverlib.a(sw_crc.o)
 .debug_aranges
                0x00002248      0x190 C:/ti/simplelink_msp432e4_sdk_4_20_00_12/source\ti/devices/msp432e4/driverlib/lib/gcc/m4f/msp432e4_driverlib.a(sysctl.o)
 .debug_aranges
                0x000023d8       0x60 C:/ti/simplelink_msp432e4_sdk_4_20_00_12/source\ti/devices/msp432e4/driverlib/lib/gcc/m4f/msp432e4_driverlib.a(systick.o)
 .debug_aranges
                0x00002438       0x48 C:/ti/simplelink_msp432e4_sdk_4_20_00_12/source\ti/devices/msp432e4/driverlib/lib/gcc/m4f/msp432e4_driverlib.a(cpu.o)

.debug_ranges   0x00000000     0x1b20
 .debug_ranges  0x00000000       0x10 ./RTE.o
 .debug_ranges  0x00000010       0x48 ./cgifuncs.o
 .debug_ranges  0x00000058       0x40 ./enet_io.o
 .debug_ranges  0x00000098       0x50 ./io.o
 .debug_ranges  0x000000e8       0x28 ./io_fs.o
 .debug_ranges  0x00000110       0x20 ./pinout.o
 .debug_ranges  0x00000130       0x18 ./system_msp432e401y.o
 .debug_ranges  0x00000148       0x38 ./uartstdio.o
 .debug_ranges  0x00000180       0x90 ./ustdlib.o
 .debug_ranges  0x00000210       0x28 ./Kernal/kernal/List.o
 .debug_ranges  0x00000238       0x20 ./Kernal/kernal/Mutex.o
 .debug_ranges  0x00000258       0x38 ./Kernal/kernal/PeridicTask.o
 .debug_ranges  0x00000290       0xa8 ./Kernal/kernal/SquadRTOS.o
 .debug_ranges  0x00000338       0x28 ./Kernal/kernal/mailBox.o
 .debug_ranges  0x00000360       0x40 ./Kernal/kernal/queue.o
 .debug_ranges  0x000003a0       0x70 ./Kernal/kernal/thread.o
 .debug_ranges  0x00000410       0x18 ./gcc/startup_msp432e401y_gcc.o
 .debug_ranges  0x00000428       0x50 ./lwip/ports/msp432e4/netif/msp432e4if.o
 .debug_ranges  0x00000478       0x10 ./lwip/ports/msp432e4/perf.o
 .debug_ranges  0x00000488       0x20 ./lwip/ports/msp432e4/sys_arch.o
 .debug_ranges  0x000004a8       0x48 ./lwip/ports/msp432e4/utils/locator.o
 .debug_ranges  0x000004f0       0x78 ./lwip/ports/msp432e4/utils/lwiplib.o
 .debug_ranges  0x00000568       0x20 ./lwip/ports/msp432e4/utils/swupdate.o
 .debug_ranges  0x00000588       0xf8 ./lwip/src/apps/httpd/httpd.o
 .debug_ranges  0x00000680       0x80 ./lwip/src/apps/lwiperf/lwiperf.o
 .debug_ranges  0x00000700      0x158 ./lwip/src/apps/mqtt/mqtt.o
 .debug_ranges  0x00000858       0x30 ./lwip/src/apps/netbiosns/netbiosns.o
 .debug_ranges  0x00000888       0x70 ./lwip/src/apps/sntp/sntp.o
 .debug_ranges  0x000008f8       0x60 ./lwip/src/apps/tftp/tftp_server.o
 .debug_ranges  0x00000958       0x38 ./lwip/src/core/def.o
 .debug_ranges  0x00000990       0xd0 ./lwip/src/core/dns.o
 .debug_ranges  0x00000a60       0x50 ./lwip/src/core/inet_chksum.o
 .debug_ranges  0x00000ab0       0x10 ./lwip/src/core/init.o
 .debug_ranges  0x00000ac0       0x38 ./lwip/src/core/mem.o
 .debug_ranges  0x00000af8       0x48 ./lwip/src/core/memp.o
 .debug_ranges  0x00000b40       0x80 ./lwip/src/core/netif.o
 .debug_ranges  0x00000bc0       0xd8 ./lwip/src/core/pbuf.o
 .debug_ranges  0x00000c98       0x10 ./lwip/src/core/stats.o
 .debug_ranges  0x00000ca8      0x178 ./lwip/src/core/tcp.o
 .debug_ranges  0x00000e20       0x80 ./lwip/src/core/tcp_in.o
 .debug_ranges  0x00000ea0      0x100 ./lwip/src/core/tcp_out.o
 .debug_ranges  0x00000fa0       0x50 ./lwip/src/core/timeouts.o
 .debug_ranges  0x00000ff0       0x88 ./lwip/src/core/udp.o
 .debug_ranges  0x00001078       0x98 ./lwip/src/core/ipv4/autoip.o
 .debug_ranges  0x00001110      0x130 ./lwip/src/core/ipv4/dhcp.o
 .debug_ranges  0x00001240       0x78 ./lwip/src/core/ipv4/etharp.o
 .debug_ranges  0x000012b8       0x38 ./lwip/src/core/ipv4/icmp.o
 .debug_ranges  0x000012f0       0x30 ./lwip/src/core/ipv4/ip4.o
 .debug_ranges  0x00001320       0x38 ./lwip/src/core/ipv4/ip4_addr.o
 .debug_ranges  0x00001358       0x18 ./lwip/src/netif/ethernet.o
 .debug_ranges  0x00001370       0x38 ./lwip/src/netif/slipif.o
 .debug_ranges  0x000013a8      0x290 C:/ti/simplelink_msp432e4_sdk_4_20_00_12/source\ti/devices/msp432e4/driverlib/lib/gcc/m4f/msp432e4_driverlib.a(emac.o)
 .debug_ranges  0x00001638       0x90 C:/ti/simplelink_msp432e4_sdk_4_20_00_12/source\ti/devices/msp432e4/driverlib/lib/gcc/m4f/msp432e4_driverlib.a(flash.o)
 .debug_ranges  0x000016c8      0x190 C:/ti/simplelink_msp432e4_sdk_4_20_00_12/source\ti/devices/msp432e4/driverlib/lib/gcc/m4f/msp432e4_driverlib.a(gpio.o)
 .debug_ranges  0x00001858       0x90 C:/ti/simplelink_msp432e4_sdk_4_20_00_12/source\ti/devices/msp432e4/driverlib/lib/gcc/m4f/msp432e4_driverlib.a(interrupt.o)
 .debug_ranges  0x000018e8       0x30 C:/ti/simplelink_msp432e4_sdk_4_20_00_12/source\ti/devices/msp432e4/driverlib/lib/gcc/m4f/msp432e4_driverlib.a(sw_crc.o)
 .debug_ranges  0x00001918      0x180 C:/ti/simplelink_msp432e4_sdk_4_20_00_12/source\ti/devices/msp432e4/driverlib/lib/gcc/m4f/msp432e4_driverlib.a(sysctl.o)
 .debug_ranges  0x00001a98       0x50 C:/ti/simplelink_msp432e4_sdk_4_20_00_12/source\ti/devices/msp432e4/driverlib/lib/gcc/m4f/msp432e4_driverlib.a(systick.o)
 .debug_ranges  0x00001ae8       0x38 C:/ti/simplelink_msp432e4_sdk_4_20_00_12/source\ti/devices/msp432e4/driverlib/lib/gcc/m4f/msp432e4_driverlib.a(cpu.o)

.debug_line     0x00000000    0x1b720
 .debug_line    0x00000000       0x3e ./RTE.o
 .debug_line    0x0000003e      0x499 ./cgifuncs.o
 .debug_line    0x000004d7      0x506 ./enet_io.o
 .debug_line    0x000009dd      0x320 ./io.o
 .debug_line    0x00000cfd      0x561 ./io_fs.o
 .debug_line    0x0000125e      0x2e7 ./pinout.o
 .debug_line    0x00001545      0x278 ./system_msp432e401y.o
 .debug_line    0x000017bd      0x4a1 ./uartstdio.o
 .debug_line    0x00001c5e      0x95e ./ustdlib.o
 .debug_line    0x000025bc      0x305 ./Kernal/kernal/List.o
 .debug_line    0x000028c1      0x493 ./Kernal/kernal/Mutex.o
 .debug_line    0x00002d54      0x51e ./Kernal/kernal/PeridicTask.o
 .debug_line    0x00003272      0x828 ./Kernal/kernal/SquadRTOS.o
 .debug_line    0x00003a9a       0x7c ./Kernal/kernal/SquadRTOS_Handlers.o
 .debug_line    0x00003b16       0x7c ./Kernal/kernal/SquadRTOS_Systemcall.o
 .debug_line    0x00003b92        0x0 ./Kernal/kernal/kenal.o
 .debug_line    0x00003b92      0x4df ./Kernal/kernal/mailBox.o
 .debug_line    0x00004071      0x22e ./Kernal/kernal/queue.o
 .debug_line    0x0000429f      0x63a ./Kernal/kernal/thread.o
 .debug_line    0x000048d9      0x118 ./gcc/startup_msp432e401y_gcc.o
 .debug_line    0x000049f1      0xa35 ./lwip/ports/msp432e4/netif/msp432e4if.o
 .debug_line    0x00005426       0x89 ./lwip/ports/msp432e4/perf.o
 .debug_line    0x000054af      0x344 ./lwip/ports/msp432e4/sys_arch.o
 .debug_line    0x000057f3      0x4ac ./lwip/ports/msp432e4/utils/locator.o
 .debug_line    0x00005c9f      0x7a1 ./lwip/ports/msp432e4/utils/lwiplib.o
 .debug_line    0x00006440      0x523 ./lwip/ports/msp432e4/utils/swupdate.o
 .debug_line    0x00006963       0xc4 ./lwip/src/api/api_lib.o
 .debug_line    0x00006a27       0xc4 ./lwip/src/api/api_msg.o
 .debug_line    0x00006aeb       0xc4 ./lwip/src/api/err.o
 .debug_line    0x00006baf       0xc4 ./lwip/src/api/netbuf.o
 .debug_line    0x00006c73       0xc4 ./lwip/src/api/netdb.o
 .debug_line    0x00006d37       0xc4 ./lwip/src/api/netifapi.o
 .debug_line    0x00006dfb       0xc4 ./lwip/src/api/sockets.o
 .debug_line    0x00006ebf       0xc4 ./lwip/src/api/tcpip.o
 .debug_line    0x00006f83      0xfef ./lwip/src/apps/httpd/httpd.o
 .debug_line    0x00007f72      0x823 ./lwip/src/apps/lwiperf/lwiperf.o
 .debug_line    0x00008795      0x2ab ./lwip/src/apps/mdns/mdns.o
 .debug_line    0x00008a40      0xd4d ./lwip/src/apps/mqtt/mqtt.o
 .debug_line    0x0000978d      0x462 ./lwip/src/apps/netbiosns/netbiosns.o
 .debug_line    0x00009bef       0xc4 ./lwip/src/apps/snmp/snmp_asn1.o
 .debug_line    0x00009cb3       0xc4 ./lwip/src/apps/snmp/snmp_core.o
 .debug_line    0x00009d77       0xc4 ./lwip/src/apps/snmp/snmp_mib2.o
 .debug_line    0x00009e3b      0x23a ./lwip/src/apps/snmp/snmp_mib2_icmp.o
 .debug_line    0x0000a075      0x23a ./lwip/src/apps/snmp/snmp_mib2_interfaces.o
 .debug_line    0x0000a2af      0x2a2 ./lwip/src/apps/snmp/snmp_mib2_ip.o
 .debug_line    0x0000a551      0x198 ./lwip/src/apps/snmp/snmp_mib2_snmp.o
 .debug_line    0x0000a6e9      0x198 ./lwip/src/apps/snmp/snmp_mib2_system.o
 .debug_line    0x0000a881      0x2c2 ./lwip/src/apps/snmp/snmp_mib2_tcp.o
 .debug_line    0x0000ab43      0x2ab ./lwip/src/apps/snmp/snmp_mib2_udp.o
 .debug_line    0x0000adee       0xc4 ./lwip/src/apps/snmp/snmp_msg.o
 .debug_line    0x0000aeb2       0xc4 ./lwip/src/apps/snmp/snmp_netconn.o
 .debug_line    0x0000af76       0xc4 ./lwip/src/apps/snmp/snmp_pbuf_stream.o
 .debug_line    0x0000b03a      0x198 ./lwip/src/apps/snmp/snmp_raw.o
 .debug_line    0x0000b1d2       0xc4 ./lwip/src/apps/snmp/snmp_scalar.o
 .debug_line    0x0000b296       0xc4 ./lwip/src/apps/snmp/snmp_table.o
 .debug_line    0x0000b35a       0xc4 ./lwip/src/apps/snmp/snmp_threadsync.o
 .debug_line    0x0000b41e       0xc4 ./lwip/src/apps/snmp/snmp_traps.o
 .debug_line    0x0000b4e2       0xc4 ./lwip/src/apps/snmp/snmpv3.o
 .debug_line    0x0000b5a6       0xc4 ./lwip/src/apps/snmp/snmpv3_dummy.o
 .debug_line    0x0000b66a       0xc4 ./lwip/src/apps/snmp/snmpv3_mbedtls.o
 .debug_line    0x0000b72e      0x580 ./lwip/src/apps/sntp/sntp.o
 .debug_line    0x0000bcae      0x676 ./lwip/src/apps/tftp/tftp_server.o
 .debug_line    0x0000c324      0x33c ./lwip/src/core/def.o
 .debug_line    0x0000c660      0xa1b ./lwip/src/core/dns.o
 .debug_line    0x0000d07b      0x48a ./lwip/src/core/inet_chksum.o
 .debug_line    0x0000d505      0x35c ./lwip/src/core/init.o
 .debug_line    0x0000d861      0x2f4 ./lwip/src/core/ip.o
 .debug_line    0x0000db55      0x5cc ./lwip/src/core/mem.o
 .debug_line    0x0000e121      0x54e ./lwip/src/core/memp.o
 .debug_line    0x0000e66f      0x662 ./lwip/src/core/netif.o
 .debug_line    0x0000ecd1      0xabf ./lwip/src/core/pbuf.o
 .debug_line    0x0000f790       0xc4 ./lwip/src/core/raw.o
 .debug_line    0x0000f854      0x268 ./lwip/src/core/stats.o
 .debug_line    0x0000fabc       0xc4 ./lwip/src/core/sys.o
 .debug_line    0x0000fb80     0x1046 ./lwip/src/core/tcp.o
 .debug_line    0x00010bc6     0x10df ./lwip/src/core/tcp_in.o
 .debug_line    0x00011ca5      0xc89 ./lwip/src/core/tcp_out.o
 .debug_line    0x0001292e      0x5ac ./lwip/src/core/timeouts.o
 .debug_line    0x00012eda      0x799 ./lwip/src/core/udp.o
 .debug_line    0x00013673      0x66b ./lwip/src/core/ipv4/autoip.o
 .debug_line    0x00013cde     0x1140 ./lwip/src/core/ipv4/dhcp.o
 .debug_line    0x00014e1e      0x902 ./lwip/src/core/ipv4/etharp.o
 .debug_line    0x00015720      0x46a ./lwip/src/core/ipv4/icmp.o
 .debug_line    0x00015b8a       0xc4 ./lwip/src/core/ipv4/igmp.o
 .debug_line    0x00015c4e      0x5cc ./lwip/src/core/ipv4/ip4.o
 .debug_line    0x0001621a      0x525 ./lwip/src/core/ipv4/ip4_addr.o
 .debug_line    0x0001673f      0x2a2 ./lwip/src/core/ipv4/ip4_frag.o
 .debug_line    0x000169e1       0xc4 ./lwip/src/core/ipv6/dhcp6.o
 .debug_line    0x00016aa5       0xc4 ./lwip/src/core/ipv6/ethip6.o
 .debug_line    0x00016b69       0xc4 ./lwip/src/core/ipv6/icmp6.o
 .debug_line    0x00016c2d       0xc4 ./lwip/src/core/ipv6/inet6.o
 .debug_line    0x00016cf1       0xc4 ./lwip/src/core/ipv6/ip6.o
 .debug_line    0x00016db5       0xc4 ./lwip/src/core/ipv6/ip6_addr.o
 .debug_line    0x00016e79      0x2a2 ./lwip/src/core/ipv6/ip6_frag.o
 .debug_line    0x0001711b       0xc4 ./lwip/src/core/ipv6/mld6.o
 .debug_line    0x000171df       0xc4 ./lwip/src/core/ipv6/nd6.o
 .debug_line    0x000172a3      0x459 ./lwip/src/netif/ethernet.o
 .debug_line    0x000176fc       0xc4 ./lwip/src/netif/ethernetif.o
 .debug_line    0x000177c0       0xc4 ./lwip/src/netif/lowpan6.o
 .debug_line    0x00017884      0x499 ./lwip/src/netif/slipif.o
 .debug_line    0x00017d1d       0xc4 ./lwip/src/netif/ppp/auth.o
 .debug_line    0x00017de1       0xc4 ./lwip/src/netif/ppp/ccp.o
 .debug_line    0x00017ea5       0xc4 ./lwip/src/netif/ppp/chap-md5.o
 .debug_line    0x00017f69       0xc4 ./lwip/src/netif/ppp/chap-new.o
 .debug_line    0x0001802d       0xc4 ./lwip/src/netif/ppp/chap_ms.o
 .debug_line    0x000180f1       0xc4 ./lwip/src/netif/ppp/demand.o
 .debug_line    0x000181b5       0xc4 ./lwip/src/netif/ppp/eap.o
 .debug_line    0x00018279       0xc4 ./lwip/src/netif/ppp/ecp.o
 .debug_line    0x0001833d       0xc4 ./lwip/src/netif/ppp/eui64.o
 .debug_line    0x00018401       0xc4 ./lwip/src/netif/ppp/fsm.o
 .debug_line    0x000184c5       0xc4 ./lwip/src/netif/ppp/ipcp.o
 .debug_line    0x00018589       0xc4 ./lwip/src/netif/ppp/ipv6cp.o
 .debug_line    0x0001864d       0xc4 ./lwip/src/netif/ppp/lcp.o
 .debug_line    0x00018711       0xc4 ./lwip/src/netif/ppp/magic.o
 .debug_line    0x000187d5       0xc4 ./lwip/src/netif/ppp/mppe.o
 .debug_line    0x00018899       0xc4 ./lwip/src/netif/ppp/multilink.o
 .debug_line    0x0001895d       0xc4 ./lwip/src/netif/ppp/ppp.o
 .debug_line    0x00018a21       0xc4 ./lwip/src/netif/ppp/pppapi.o
 .debug_line    0x00018ae5       0xc4 ./lwip/src/netif/ppp/pppcrypt.o
 .debug_line    0x00018ba9       0xc4 ./lwip/src/netif/ppp/pppoe.o
 .debug_line    0x00018c6d       0xc4 ./lwip/src/netif/ppp/pppol2tp.o
 .debug_line    0x00018d31       0xc4 ./lwip/src/netif/ppp/pppos.o
 .debug_line    0x00018df5       0xc4 ./lwip/src/netif/ppp/upap.o
 .debug_line    0x00018eb9       0xc4 ./lwip/src/netif/ppp/utils.o
 .debug_line    0x00018f7d       0xc4 ./lwip/src/netif/ppp/vj.o
 .debug_line    0x00019041       0xc4 ./lwip/src/netif/ppp/polarssl/arc4.o
 .debug_line    0x00019105       0xc4 ./lwip/src/netif/ppp/polarssl/des.o
 .debug_line    0x000191c9       0xc4 ./lwip/src/netif/ppp/polarssl/md4.o
 .debug_line    0x0001928d       0xc4 ./lwip/src/netif/ppp/polarssl/md5.o
 .debug_line    0x00019351       0xc4 ./lwip/src/netif/ppp/polarssl/sha1.o
 .debug_line    0x00019415      0x981 C:/ti/simplelink_msp432e4_sdk_4_20_00_12/source\ti/devices/msp432e4/driverlib/lib/gcc/m4f/msp432e4_driverlib.a(emac.o)
 .debug_line    0x00019d96      0x30f C:/ti/simplelink_msp432e4_sdk_4_20_00_12/source\ti/devices/msp432e4/driverlib/lib/gcc/m4f/msp432e4_driverlib.a(flash.o)
 .debug_line    0x0001a0a5      0x8c3 C:/ti/simplelink_msp432e4_sdk_4_20_00_12/source\ti/devices/msp432e4/driverlib/lib/gcc/m4f/msp432e4_driverlib.a(gpio.o)
 .debug_line    0x0001a968      0x2f8 C:/ti/simplelink_msp432e4_sdk_4_20_00_12/source\ti/devices/msp432e4/driverlib/lib/gcc/m4f/msp432e4_driverlib.a(interrupt.o)
 .debug_line    0x0001ac60      0x1e5 C:/ti/simplelink_msp432e4_sdk_4_20_00_12/source\ti/devices/msp432e4/driverlib/lib/gcc/m4f/msp432e4_driverlib.a(sw_crc.o)
 .debug_line    0x0001ae45      0x5b6 C:/ti/simplelink_msp432e4_sdk_4_20_00_12/source\ti/devices/msp432e4/driverlib/lib/gcc/m4f/msp432e4_driverlib.a(sysctl.o)
 .debug_line    0x0001b3fb      0x1ac C:/ti/simplelink_msp432e4_sdk_4_20_00_12/source\ti/devices/msp432e4/driverlib/lib/gcc/m4f/msp432e4_driverlib.a(systick.o)
 .debug_line    0x0001b5a7      0x179 C:/ti/simplelink_msp432e4_sdk_4_20_00_12/source\ti/devices/msp432e4/driverlib/lib/gcc/m4f/msp432e4_driverlib.a(cpu.o)

.debug_str      0x00000000     0xb546
 .debug_str     0x00000000      0x156 ./RTE.o
                                0x15b (size before relaxing)
 .debug_str     0x00000156      0x564 ./cgifuncs.o
                                0x77a (size before relaxing)
 .debug_str     0x000006ba      0x63e ./enet_io.o
                                0xd68 (size before relaxing)
 .debug_str     0x00000cf8       0xd8 ./io.o
                                0x728 (size before relaxing)
 .debug_str     0x00000dd0      0x308 ./io_fs.o
                                0xdbe (size before relaxing)
 .debug_str     0x000010d8       0xbf ./pinout.o
                                0x709 (size before relaxing)
 .debug_str     0x00001197      0x80d ./system_msp432e401y.o
                                0xa60 (size before relaxing)
 .debug_str     0x000019a4      0x127 ./uartstdio.o
                                0x787 (size before relaxing)
 .debug_str     0x00001acb      0x1ab ./ustdlib.o
                                0x83a (size before relaxing)
 .debug_str     0x00001c76       0xa8 ./Kernal/kernal/List.o
                                0x781 (size before relaxing)
 .debug_str     0x00001d1e       0xd1 ./Kernal/kernal/Mutex.o
                                0xc0e (size before relaxing)
 .debug_str     0x00001def      0x173 ./Kernal/kernal/PeridicTask.o
                                0xc1a (size before relaxing)
 .debug_str     0x00001f62      0x7e3 ./Kernal/kernal/SquadRTOS.o
                               0x1484 (size before relaxing)
 .debug_str     0x00002745       0x34 ./Kernal/kernal/SquadRTOS_Handlers.o
                                 0x9b (size before relaxing)
 .debug_str     0x00002779       0x28 ./Kernal/kernal/SquadRTOS_Systemcall.o
                                 0x9d (size before relaxing)
 .debug_str     0x000027a1       0x19 ./Kernal/kernal/kenal.o
                                0x15b (size before relaxing)
 .debug_str     0x000027ba       0xf5 ./Kernal/kernal/mailBox.o
                                0xc63 (size before relaxing)
 .debug_str     0x000028af       0xd1 ./Kernal/kernal/queue.o
                                0x704 (size before relaxing)
 .debug_str     0x00002980      0x212 ./Kernal/kernal/thread.o
                                0xe65 (size before relaxing)
 .debug_str     0x00002b92       0x9e ./gcc/startup_msp432e401y_gcc.o
                                0x278 (size before relaxing)
 .debug_str     0x00002c30      0x465 ./lwip/ports/msp432e4/netif/msp432e4if.o
                                0xebc (size before relaxing)
 .debug_str     0x00003095       0x67 ./lwip/ports/msp432e4/perf.o
                                0x1ae (size before relaxing)
 .debug_str     0x000030fc       0x98 ./lwip/ports/msp432e4/sys_arch.o
                                0x6e2 (size before relaxing)
 .debug_str     0x00003194      0x134 ./lwip/ports/msp432e4/utils/locator.o
                                0xc14 (size before relaxing)
 .debug_str     0x000032c8      0x587 ./lwip/ports/msp432e4/utils/lwiplib.o
                               0x1163 (size before relaxing)
 .debug_str     0x0000384f      0x10f ./lwip/ports/msp432e4/utils/swupdate.o
                                0xc32 (size before relaxing)
 .debug_str     0x0000395e       0x53 ./lwip/src/api/api_lib.o
                                0x637 (size before relaxing)
 .debug_str     0x000039b1       0x53 ./lwip/src/api/api_msg.o
                                0x637 (size before relaxing)
 .debug_str     0x00003a04       0x4f ./lwip/src/api/err.o
                                0x633 (size before relaxing)
 .debug_str     0x00003a53       0x52 ./lwip/src/api/netbuf.o
                                0x636 (size before relaxing)
 .debug_str     0x00003aa5       0x51 ./lwip/src/api/netdb.o
                                0x635 (size before relaxing)
 .debug_str     0x00003af6       0x54 ./lwip/src/api/netifapi.o
                                0x638 (size before relaxing)
 .debug_str     0x00003b4a       0x53 ./lwip/src/api/sockets.o
                                0x637 (size before relaxing)
 .debug_str     0x00003b9d       0x51 ./lwip/src/api/tcpip.o
                                0x635 (size before relaxing)
 .debug_str     0x00003bee      0x57e ./lwip/src/apps/httpd/httpd.o
                               0x137e (size before relaxing)
 .debug_str     0x0000416c      0x472 ./lwip/src/apps/lwiperf/lwiperf.o
                               0x1228 (size before relaxing)
 .debug_str     0x000045de       0x56 ./lwip/src/apps/mdns/mdns.o
                                0x9bc (size before relaxing)
 .debug_str     0x00004634      0x97b ./lwip/src/apps/mqtt/mqtt.o
                               0x164f (size before relaxing)
 .debug_str     0x00004faf      0x1a5 ./lwip/src/apps/netbiosns/netbiosns.o
                                0xccb (size before relaxing)
 .debug_str     0x00005154       0x5b ./lwip/src/apps/snmp/snmp_asn1.o
                                0x63f (size before relaxing)
 .debug_str     0x000051af       0x5b ./lwip/src/apps/snmp/snmp_core.o
                                0x63f (size before relaxing)
 .debug_str     0x0000520a       0x5b ./lwip/src/apps/snmp/snmp_mib2.o
                                0x63f (size before relaxing)
 .debug_str     0x00005265       0x60 ./lwip/src/apps/snmp/snmp_mib2_icmp.o
                                0x897 (size before relaxing)
 .debug_str     0x000052c5       0x66 ./lwip/src/apps/snmp/snmp_mib2_interfaces.o
                                0x89d (size before relaxing)
 .debug_str     0x0000532b       0x5e ./lwip/src/apps/snmp/snmp_mib2_ip.o
                                0x969 (size before relaxing)
 .debug_str     0x00005389       0x60 ./lwip/src/apps/snmp/snmp_mib2_snmp.o
                                0x69f (size before relaxing)
 .debug_str     0x000053e9       0x62 ./lwip/src/apps/snmp/snmp_mib2_system.o
                                0x6a1 (size before relaxing)
 .debug_str     0x0000544b       0x5f ./lwip/src/apps/snmp/snmp_mib2_tcp.o
                                0xcf4 (size before relaxing)
 .debug_str     0x000054aa       0x5f ./lwip/src/apps/snmp/snmp_mib2_udp.o
                                0x9c5 (size before relaxing)
 .debug_str     0x00005509       0x5a ./lwip/src/apps/snmp/snmp_msg.o
                                0x63e (size before relaxing)
 .debug_str     0x00005563       0x5e ./lwip/src/apps/snmp/snmp_netconn.o
                                0x642 (size before relaxing)
 .debug_str     0x000055c1       0x62 ./lwip/src/apps/snmp/snmp_pbuf_stream.o
                                0x646 (size before relaxing)
 .debug_str     0x00005623       0x5a ./lwip/src/apps/snmp/snmp_raw.o
                                0x699 (size before relaxing)
 .debug_str     0x0000567d       0x5d ./lwip/src/apps/snmp/snmp_scalar.o
                                0x641 (size before relaxing)
 .debug_str     0x000056da       0x5c ./lwip/src/apps/snmp/snmp_table.o
                                0x640 (size before relaxing)
 .debug_str     0x00005736       0x61 ./lwip/src/apps/snmp/snmp_threadsync.o
                                0x645 (size before relaxing)
 .debug_str     0x00005797       0x5c ./lwip/src/apps/snmp/snmp_traps.o
                                0x640 (size before relaxing)
 .debug_str     0x000057f3       0x58 ./lwip/src/apps/snmp/snmpv3.o
                                0x63c (size before relaxing)
 .debug_str     0x0000584b       0x5e ./lwip/src/apps/snmp/snmpv3_dummy.o
                                0x642 (size before relaxing)
 .debug_str     0x000058a9       0x60 ./lwip/src/apps/snmp/snmpv3_mbedtls.o
                                0x644 (size before relaxing)
 .debug_str     0x00005909      0x25d ./lwip/src/apps/sntp/sntp.o
                                0xe8e (size before relaxing)
 .debug_str     0x00005b66      0x1d8 ./lwip/src/apps/tftp/tftp_server.o
                                0xe27 (size before relaxing)
 .debug_str     0x00005d3e       0xdf ./lwip/src/core/def.o
                                0x722 (size before relaxing)
 .debug_str     0x00005e1d      0x324 ./lwip/src/core/dns.o
                                0xf50 (size before relaxing)
 .debug_str     0x00006141      0x15a ./lwip/src/core/inet_chksum.o
                                0x81c (size before relaxing)
 .debug_str     0x0000629b       0x5b ./lwip/src/core/init.o
                                0xd86 (size before relaxing)
 .debug_str     0x000062f6       0x4f ./lwip/src/core/ip.o
                                0xa55 (size before relaxing)
 .debug_str     0x00006345       0xc4 ./lwip/src/core/mem.o
                                0x8ee (size before relaxing)
 .debug_str     0x00006409      0x2e5 ./lwip/src/core/memp.o
                               0x1151 (size before relaxing)
 .debug_str     0x000066ee      0x15d ./lwip/src/core/netif.o
                                0xfeb (size before relaxing)
 .debug_str     0x0000684b      0x2bb ./lwip/src/core/pbuf.o
                               0x11fd (size before relaxing)
 .debug_str     0x00006b06       0x50 ./lwip/src/core/raw.o
                                0x634 (size before relaxing)
 .debug_str     0x00006b56       0x5d ./lwip/src/core/stats.o
                                0x7a8 (size before relaxing)
 .debug_str     0x00006bb3       0x50 ./lwip/src/core/sys.o
                                0x634 (size before relaxing)
 .debug_str     0x00006c03      0x459 ./lwip/src/core/tcp.o
                               0x1347 (size before relaxing)
 .debug_str     0x0000705c      0x1d3 ./lwip/src/core/tcp_in.o
                               0x103d (size before relaxing)
 .debug_str     0x0000722f      0x1f7 ./lwip/src/core/tcp_out.o
                               0x1095 (size before relaxing)
 .debug_str     0x00007426      0x15d ./lwip/src/core/timeouts.o
                                0xfa9 (size before relaxing)
 .debug_str     0x00007583      0x1d6 ./lwip/src/core/udp.o
                                0xda0 (size before relaxing)
 .debug_str     0x00007759      0x237 ./lwip/src/core/ipv4/autoip.o
                                0xbe1 (size before relaxing)
 .debug_str     0x00007990      0x76c ./lwip/src/core/ipv4/dhcp.o
                               0x1389 (size before relaxing)
 .debug_str     0x000080fc      0x406 ./lwip/src/core/ipv4/etharp.o
                               0x1016 (size before relaxing)
 .debug_str     0x00008502       0xb3 ./lwip/src/core/ipv4/icmp.o
                                0xb5a (size before relaxing)
 .debug_str     0x000085b5       0x56 ./lwip/src/core/ipv4/igmp.o
                                0x63a (size before relaxing)
 .debug_str     0x0000860b       0xdd ./lwip/src/core/ipv4/ip4.o
                                0xfb0 (size before relaxing)
 .debug_str     0x000086e8       0xd9 ./lwip/src/core/ipv4/ip4_addr.o
                                0xa1e (size before relaxing)
 .debug_str     0x000087c1       0x5a ./lwip/src/core/ipv4/ip4_frag.o
                                0x965 (size before relaxing)
 .debug_str     0x0000881b       0x57 ./lwip/src/core/ipv6/dhcp6.o
                                0x63b (size before relaxing)
 .debug_str     0x00008872       0x58 ./lwip/src/core/ipv6/ethip6.o
                                0x63c (size before relaxing)
 .debug_str     0x000088ca       0x57 ./lwip/src/core/ipv6/icmp6.o
                                0x63b (size before relaxing)
 .debug_str     0x00008921       0x57 ./lwip/src/core/ipv6/inet6.o
                                0x63b (size before relaxing)
 .debug_str     0x00008978       0x55 ./lwip/src/core/ipv6/ip6.o
                                0x639 (size before relaxing)
 .debug_str     0x000089cd       0x5a ./lwip/src/core/ipv6/ip6_addr.o
                                0x63e (size before relaxing)
 .debug_str     0x00008a27       0x5a ./lwip/src/core/ipv6/ip6_frag.o
                                0x965 (size before relaxing)
 .debug_str     0x00008a81       0x56 ./lwip/src/core/ipv6/mld6.o
                                0x63a (size before relaxing)
 .debug_str     0x00008ad7       0x55 ./lwip/src/core/ipv6/nd6.o
                                0x639 (size before relaxing)
 .debug_str     0x00008b2c       0xc1 ./lwip/src/netif/ethernet.o
                                0xc83 (size before relaxing)
 .debug_str     0x00008bed       0x58 ./lwip/src/netif/ethernetif.o
                                0x63c (size before relaxing)
 .debug_str     0x00008c45       0x55 ./lwip/src/netif/lowpan6.o
                                0x639 (size before relaxing)
 .debug_str     0x00008c9a       0xfe ./lwip/src/netif/slipif.o
                                0xa45 (size before relaxing)
 .debug_str     0x00008d98       0x56 ./lwip/src/netif/ppp/auth.o
                                0x63a (size before relaxing)
 .debug_str     0x00008dee       0x55 ./lwip/src/netif/ppp/ccp.o
                                0x639 (size before relaxing)
 .debug_str     0x00008e43       0x5a ./lwip/src/netif/ppp/chap-md5.o
                                0x63e (size before relaxing)
 .debug_str     0x00008e9d       0x5a ./lwip/src/netif/ppp/chap-new.o
                                0x63e (size before relaxing)
 .debug_str     0x00008ef7       0x59 ./lwip/src/netif/ppp/chap_ms.o
                                0x63d (size before relaxing)
 .debug_str     0x00008f50       0x58 ./lwip/src/netif/ppp/demand.o
                                0x63c (size before relaxing)
 .debug_str     0x00008fa8       0x55 ./lwip/src/netif/ppp/eap.o
                                0x639 (size before relaxing)
 .debug_str     0x00008ffd       0x55 ./lwip/src/netif/ppp/ecp.o
                                0x639 (size before relaxing)
 .debug_str     0x00009052       0x57 ./lwip/src/netif/ppp/eui64.o
                                0x63b (size before relaxing)
 .debug_str     0x000090a9       0x55 ./lwip/src/netif/ppp/fsm.o
                                0x639 (size before relaxing)
 .debug_str     0x000090fe       0x56 ./lwip/src/netif/ppp/ipcp.o
                                0x63a (size before relaxing)
 .debug_str     0x00009154       0x58 ./lwip/src/netif/ppp/ipv6cp.o
                                0x63c (size before relaxing)
 .debug_str     0x000091ac       0x55 ./lwip/src/netif/ppp/lcp.o
                                0x639 (size before relaxing)
 .debug_str     0x00009201       0x57 ./lwip/src/netif/ppp/magic.o
                                0x63b (size before relaxing)
 .debug_str     0x00009258       0x56 ./lwip/src/netif/ppp/mppe.o
                                0x63a (size before relaxing)
 .debug_str     0x000092ae       0x5b ./lwip/src/netif/ppp/multilink.o
                                0x63f (size before relaxing)
 .debug_str     0x00009309       0x55 ./lwip/src/netif/ppp/ppp.o
                                0x639 (size before relaxing)
 .debug_str     0x0000935e       0x58 ./lwip/src/netif/ppp/pppapi.o
                                0x63c (size before relaxing)
 .debug_str     0x000093b6       0x5a ./lwip/src/netif/ppp/pppcrypt.o
                                0x63e (size before relaxing)
 .debug_str     0x00009410       0x57 ./lwip/src/netif/ppp/pppoe.o
                                0x63b (size before relaxing)
 .debug_str     0x00009467       0x5a ./lwip/src/netif/ppp/pppol2tp.o
                                0x63e (size before relaxing)
 .debug_str     0x000094c1       0x57 ./lwip/src/netif/ppp/pppos.o
                                0x63b (size before relaxing)
 .debug_str     0x00009518       0x56 ./lwip/src/netif/ppp/upap.o
                                0x63a (size before relaxing)
 .debug_str     0x0000956e       0x57 ./lwip/src/netif/ppp/utils.o
                                0x63b (size before relaxing)
 .debug_str     0x000095c5       0x54 ./lwip/src/netif/ppp/vj.o
                                0x638 (size before relaxing)
 .debug_str     0x00009619       0x5f ./lwip/src/netif/ppp/polarssl/arc4.o
                                0x643 (size before relaxing)
 .debug_str     0x00009678       0x5e ./lwip/src/netif/ppp/polarssl/des.o
                                0x642 (size before relaxing)
 .debug_str     0x000096d6       0x5e ./lwip/src/netif/ppp/polarssl/md4.o
                                0x642 (size before relaxing)
 .debug_str     0x00009734       0x5e ./lwip/src/netif/ppp/polarssl/md5.o
                                0x642 (size before relaxing)
 .debug_str     0x00009792       0x5f ./lwip/src/netif/ppp/polarssl/sha1.o
                                0x643 (size before relaxing)
 .debug_str     0x000097f1      0xa4d C:/ti/simplelink_msp432e4_sdk_4_20_00_12/source\ti/devices/msp432e4/driverlib/lib/gcc/m4f/msp432e4_driverlib.a(emac.o)
                                0xc68 (size before relaxing)
 .debug_str     0x0000a23e      0x288 C:/ti/simplelink_msp432e4_sdk_4_20_00_12/source\ti/devices/msp432e4/driverlib/lib/gcc/m4f/msp432e4_driverlib.a(flash.o)
                                0x471 (size before relaxing)
 .debug_str     0x0000a4c6      0x511 C:/ti/simplelink_msp432e4_sdk_4_20_00_12/source\ti/devices/msp432e4/driverlib/lib/gcc/m4f/msp432e4_driverlib.a(gpio.o)
                                0x713 (size before relaxing)
 .debug_str     0x0000a9d7      0x20e C:/ti/simplelink_msp432e4_sdk_4_20_00_12/source\ti/devices/msp432e4/driverlib/lib/gcc/m4f/msp432e4_driverlib.a(interrupt.o)
                                0x401 (size before relaxing)
 .debug_str     0x0000abe5      0x113 C:/ti/simplelink_msp432e4_sdk_4_20_00_12/source\ti/devices/msp432e4/driverlib/lib/gcc/m4f/msp432e4_driverlib.a(sw_crc.o)
                                0x2e0 (size before relaxing)
 .debug_str     0x0000acf8      0x64f C:/ti/simplelink_msp432e4_sdk_4_20_00_12/source\ti/devices/msp432e4/driverlib/lib/gcc/m4f/msp432e4_driverlib.a(sysctl.o)
                                0x82d (size before relaxing)
 .debug_str     0x0000b347      0x127 C:/ti/simplelink_msp432e4_sdk_4_20_00_12/source\ti/devices/msp432e4/driverlib/lib/gcc/m4f/msp432e4_driverlib.a(systick.o)
                                0x2a8 (size before relaxing)
 .debug_str     0x0000b46e       0xd8 C:/ti/simplelink_msp432e4_sdk_4_20_00_12/source\ti/devices/msp432e4/driverlib/lib/gcc/m4f/msp432e4_driverlib.a(cpu.o)
                                0x24b (size before relaxing)

.debug_frame    0x00000000     0x75b8
 .debug_frame   0x00000000       0x30 ./RTE.o
 .debug_frame   0x00000030      0x140 ./cgifuncs.o
 .debug_frame   0x00000170       0xf8 ./enet_io.o
 .debug_frame   0x00000268      0x140 ./io.o
 .debug_frame   0x000003a8       0xa4 ./io_fs.o
 .debug_frame   0x0000044c       0x7c ./pinout.o
 .debug_frame   0x000004c8       0x58 ./system_msp432e401y.o
 .debug_frame   0x00000520      0x108 ./uartstdio.o
 .debug_frame   0x00000628      0x2c8 ./ustdlib.o
 .debug_frame   0x000008f0       0xb0 ./Kernal/kernal/List.o
 .debug_frame   0x000009a0       0x7c ./Kernal/kernal/Mutex.o
 .debug_frame   0x00000a1c       0xf4 ./Kernal/kernal/PeridicTask.o
 .debug_frame   0x00000b10      0x1a0 ./Kernal/kernal/SquadRTOS.o
 .debug_frame   0x00000cb0       0xa0 ./Kernal/kernal/mailBox.o
 .debug_frame   0x00000d50      0x118 ./Kernal/kernal/queue.o
 .debug_frame   0x00000e68      0x1d8 ./Kernal/kernal/thread.o
 .debug_frame   0x00001040       0x54 ./gcc/startup_msp432e401y_gcc.o
 .debug_frame   0x00001094      0x158 ./lwip/ports/msp432e4/netif/msp432e4if.o
 .debug_frame   0x000011ec       0x38 ./lwip/ports/msp432e4/perf.o
 .debug_frame   0x00001224       0x70 ./lwip/ports/msp432e4/sys_arch.o
 .debug_frame   0x00001294      0x148 ./lwip/ports/msp432e4/utils/locator.o
 .debug_frame   0x000013dc      0x200 ./lwip/ports/msp432e4/utils/lwiplib.o
 .debug_frame   0x000015dc       0x7c ./lwip/ports/msp432e4/utils/swupdate.o
 .debug_frame   0x00001658      0x458 ./lwip/src/apps/httpd/httpd.o
 .debug_frame   0x00001ab0      0x23c ./lwip/src/apps/lwiperf/lwiperf.o
 .debug_frame   0x00001cec      0x4fc ./lwip/src/apps/mqtt/mqtt.o
 .debug_frame   0x000021e8       0xb8 ./lwip/src/apps/netbiosns/netbiosns.o
 .debug_frame   0x000022a0      0x1d8 ./lwip/src/apps/sntp/sntp.o
 .debug_frame   0x00002478      0x138 ./lwip/src/apps/tftp/tftp_server.o
 .debug_frame   0x000025b0       0xfc ./lwip/src/core/def.o
 .debug_frame   0x000026ac      0x2c8 ./lwip/src/core/dns.o
 .debug_frame   0x00002974      0x158 ./lwip/src/core/inet_chksum.o
 .debug_frame   0x00002acc       0x34 ./lwip/src/core/init.o
 .debug_frame   0x00002b00       0xf4 ./lwip/src/core/mem.o
 .debug_frame   0x00002bf4      0x134 ./lwip/src/core/memp.o
 .debug_frame   0x00002d28      0x23c ./lwip/src/core/netif.o
 .debug_frame   0x00002f64      0x3cc ./lwip/src/core/pbuf.o
 .debug_frame   0x00003330       0x30 ./lwip/src/core/stats.o
 .debug_frame   0x00003360      0x6bc ./lwip/src/core/tcp.o
 .debug_frame   0x00003a1c      0x170 ./lwip/src/core/tcp_in.o
 .debug_frame   0x00003b8c      0x288 ./lwip/src/core/tcp_out.o
 .debug_frame   0x00003e14      0x144 ./lwip/src/core/timeouts.o
 .debug_frame   0x00003f58      0x268 ./lwip/src/core/udp.o
 .debug_frame   0x000041c0      0x238 ./lwip/src/core/ipv4/autoip.o
 .debug_frame   0x000043f8      0x578 ./lwip/src/core/ipv4/dhcp.o
 .debug_frame   0x00004970      0x228 ./lwip/src/core/ipv4/etharp.o
 .debug_frame   0x00004b98       0x84 ./lwip/src/core/ipv4/icmp.o
 .debug_frame   0x00004c1c       0xcc ./lwip/src/core/ipv4/ip4.o
 .debug_frame   0x00004ce8       0xf4 ./lwip/src/core/ipv4/ip4_addr.o
 .debug_frame   0x00004ddc       0x58 ./lwip/src/netif/ethernet.o
 .debug_frame   0x00004e34       0xe8 ./lwip/src/netif/slipif.o
 .debug_frame   0x00004f1c      0xc8c C:/ti/simplelink_msp432e4_sdk_4_20_00_12/source\ti/devices/msp432e4/driverlib/lib/gcc/m4f/msp432e4_driverlib.a(emac.o)
 .debug_frame   0x00005ba8      0x2a0 C:/ti/simplelink_msp432e4_sdk_4_20_00_12/source\ti/devices/msp432e4/driverlib/lib/gcc/m4f/msp432e4_driverlib.a(flash.o)
 .debug_frame   0x00005e48      0x740 C:/ti/simplelink_msp432e4_sdk_4_20_00_12/source\ti/devices/msp432e4/driverlib/lib/gcc/m4f/msp432e4_driverlib.a(gpio.o)
 .debug_frame   0x00006588      0x280 C:/ti/simplelink_msp432e4_sdk_4_20_00_12/source\ti/devices/msp432e4/driverlib/lib/gcc/m4f/msp432e4_driverlib.a(interrupt.o)
 .debug_frame   0x00006808       0xd4 C:/ti/simplelink_msp432e4_sdk_4_20_00_12/source\ti/devices/msp432e4/driverlib/lib/gcc/m4f/msp432e4_driverlib.a(sw_crc.o)
 .debug_frame   0x000068dc      0x6d8 C:/ti/simplelink_msp432e4_sdk_4_20_00_12/source\ti/devices/msp432e4/driverlib/lib/gcc/m4f/msp432e4_driverlib.a(sysctl.o)
 .debug_frame   0x00006fb4      0x138 C:/ti/simplelink_msp432e4_sdk_4_20_00_12/source\ti/devices/msp432e4/driverlib/lib/gcc/m4f/msp432e4_driverlib.a(systick.o)
 .debug_frame   0x000070ec       0x70 C:/ti/simplelink_msp432e4_sdk_4_20_00_12/source\ti/devices/msp432e4/driverlib/lib/gcc/m4f/msp432e4_driverlib.a(cpu.o)
 .debug_frame   0x0000715c       0x44 c:/ti/gcc_arm_none_eabi_9_2_1/bin/../lib/gcc/arm-none-eabi/9.2.1/thumb/v7e-m+fp/hard\libgcc.a(_aeabi_ldivmod.o)
 .debug_frame   0x000071a0       0x34 c:/ti/gcc_arm_none_eabi_9_2_1/bin/../lib/gcc/arm-none-eabi/9.2.1/thumb/v7e-m+fp/hard\libgcc.a(_udivmoddi4.o)
 .debug_frame   0x000071d4       0x28 c:/ti/gcc_arm_none_eabi_9_2_1/bin/../lib/gcc/arm-none-eabi/9.2.1/../../../../arm-none-eabi/lib/thumb/v7e-m+fp/hard\libc_nano.a(lib_a-exit.o)
 .debug_frame   0x000071fc       0x2c c:/ti/gcc_arm_none_eabi_9_2_1/bin/../lib/gcc/arm-none-eabi/9.2.1/../../../../arm-none-eabi/lib/thumb/v7e-m+fp/hard\libc_nano.a(lib_a-init.o)
 .debug_frame   0x00007228       0x30 c:/ti/gcc_arm_none_eabi_9_2_1/bin/../lib/gcc/arm-none-eabi/9.2.1/../../../../arm-none-eabi/lib/thumb/v7e-m+fp/hard\libc_nano.a(lib_a-malloc.o)
 .debug_frame   0x00007258       0x2c c:/ti/gcc_arm_none_eabi_9_2_1/bin/../lib/gcc/arm-none-eabi/9.2.1/../../../../arm-none-eabi/lib/thumb/v7e-m+fp/hard\libc_nano.a(lib_a-memcmp.o)
 .debug_frame   0x00007284       0x28 c:/ti/gcc_arm_none_eabi_9_2_1/bin/../lib/gcc/arm-none-eabi/9.2.1/../../../../arm-none-eabi/lib/thumb/v7e-m+fp/hard\libc_nano.a(lib_a-memcpy-stub.o)
 .debug_frame   0x000072ac       0x20 c:/ti/gcc_arm_none_eabi_9_2_1/bin/../lib/gcc/arm-none-eabi/9.2.1/../../../../arm-none-eabi/lib/thumb/v7e-m+fp/hard\libc_nano.a(lib_a-memset.o)
 .debug_frame   0x000072cc       0x38 c:/ti/gcc_arm_none_eabi_9_2_1/bin/../lib/gcc/arm-none-eabi/9.2.1/../../../../arm-none-eabi/lib/thumb/v7e-m+fp/hard\libc_nano.a(lib_a-nano-freer.o)
 .debug_frame   0x00007304       0x30 c:/ti/gcc_arm_none_eabi_9_2_1/bin/../lib/gcc/arm-none-eabi/9.2.1/../../../../arm-none-eabi/lib/thumb/v7e-m+fp/hard\libc_nano.a(lib_a-nano-mallocr.o)
 .debug_frame   0x00007334       0x44 c:/ti/gcc_arm_none_eabi_9_2_1/bin/../lib/gcc/arm-none-eabi/9.2.1/../../../../arm-none-eabi/lib/thumb/v7e-m+fp/hard\libc_nano.a(lib_a-rand.o)
 .debug_frame   0x00007378       0x2c c:/ti/gcc_arm_none_eabi_9_2_1/bin/../lib/gcc/arm-none-eabi/9.2.1/../../../../arm-none-eabi/lib/thumb/v7e-m+fp/hard\libc_nano.a(lib_a-sbrkr.o)
 .debug_frame   0x000073a4       0x20 c:/ti/gcc_arm_none_eabi_9_2_1/bin/../lib/gcc/arm-none-eabi/9.2.1/../../../../arm-none-eabi/lib/thumb/v7e-m+fp/hard\libc_nano.a(lib_a-strchr.o)
 .debug_frame   0x000073c4       0x20 c:/ti/gcc_arm_none_eabi_9_2_1/bin/../lib/gcc/arm-none-eabi/9.2.1/../../../../arm-none-eabi/lib/thumb/v7e-m+fp/hard\libc_nano.a(lib_a-strcmp.o)
 .debug_frame   0x000073e4       0x28 c:/ti/gcc_arm_none_eabi_9_2_1/bin/../lib/gcc/arm-none-eabi/9.2.1/../../../../arm-none-eabi/lib/thumb/v7e-m+fp/hard\libc_nano.a(lib_a-strncmp.o)
 .debug_frame   0x0000740c       0x30 c:/ti/gcc_arm_none_eabi_9_2_1/bin/../lib/gcc/arm-none-eabi/9.2.1/../../../../arm-none-eabi/lib/thumb/v7e-m+fp/hard\libc_nano.a(lib_a-strstr.o)
 .debug_frame   0x0000743c       0x30 c:/ti/gcc_arm_none_eabi_9_2_1/bin/../lib/gcc/arm-none-eabi/9.2.1/../../../../arm-none-eabi/lib/thumb/v7e-m+fp/hard\libc_nano.a(lib_a-mlock.o)
 .debug_frame   0x0000746c       0x5c c:/ti/gcc_arm_none_eabi_9_2_1/bin/../lib/gcc/arm-none-eabi/9.2.1/../../../../arm-none-eabi/lib/thumb/v7e-m+fp/hard\libc_nano.a(lib_a-reent.o)
 .debug_frame   0x000074c8       0xb0 c:/ti/gcc_arm_none_eabi_9_2_1/bin/../lib/gcc/arm-none-eabi/9.2.1/../../../../arm-none-eabi/lib/thumb/v7e-m+fp/hard\libc_nano.a(lib_a-lock.o)
 .debug_frame   0x00007578       0x20 c:/ti/gcc_arm_none_eabi_9_2_1/bin/../lib/gcc/arm-none-eabi/9.2.1/../../../../arm-none-eabi/lib/thumb/v7e-m+fp/hard\libnosys.a(sbrk.o)
 .debug_frame   0x00007598       0x20 c:/ti/gcc_arm_none_eabi_9_2_1/bin/../lib/gcc/arm-none-eabi/9.2.1/../../../../arm-none-eabi/lib/thumb/v7e-m+fp/hard\libnosys.a(_exit.o)
